ARM GAS  C:\Users\mikal\AppData\Local\Temp\cc6mcObI.s 			page 1


   1              		.cpu cortex-m4
   2              		.eabi_attribute 27, 1
   3              		.eabi_attribute 28, 1
   4              		.eabi_attribute 20, 1
   5              		.eabi_attribute 21, 1
   6              		.eabi_attribute 23, 3
   7              		.eabi_attribute 24, 1
   8              		.eabi_attribute 25, 1
   9              		.eabi_attribute 26, 1
  10              		.eabi_attribute 30, 1
  11              		.eabi_attribute 34, 1
  12              		.eabi_attribute 18, 4
  13              		.file	"main.c"
  14              		.text
  15              	.Ltext0:
  16              		.cfi_sections	.debug_frame
  17              		.section	.text.MX_GPIO_Init,"ax",%progbits
  18              		.align	1
  19              		.arch armv7e-m
  20              		.syntax unified
  21              		.thumb
  22              		.thumb_func
  23              		.fpu fpv4-sp-d16
  25              	MX_GPIO_Init:
  26              	.LFB137:
  27              		.file 1 "main.c"
   1:main.c        **** #include "main.h"
   2:main.c        **** #include "i2c_api.h"
   3:main.c        **** #include "uart_api.h"
   4:main.c        **** #include "user_functions.h"
   5:main.c        **** #include "error.h"
   6:main.c        **** 
   7:main.c        **** void SystemClock_Config(void);
   8:main.c        **** static void MX_GPIO_Init(void);
   9:main.c        **** 
  10:main.c        **** /**
  11:main.c        ****   * @brief  The application entry point.
  12:main.c        ****   * @retval int
  13:main.c        ****   */
  14:main.c        **** int main(void)
  15:main.c        **** {
  16:main.c        ****     bool i2c_fast_speed = false;
  17:main.c        **** 
  18:main.c        ****   /* Reset of all peripherals, Initializes the Flash interface and the Systick. */
  19:main.c        ****   HAL_Init();
  20:main.c        **** 
  21:main.c        ****   /* Configure the system clock */
  22:main.c        ****   SystemClock_Config();
  23:main.c        **** 
  24:main.c        ****   /* Initialize all configured peripherals */
  25:main.c        ****   MX_GPIO_Init();
  26:main.c        **** 
  27:main.c        ****   I2C_API_Init(i2c_fast_speed);
  28:main.c        ****   UartAPI_Init();
  29:main.c        **** 
  30:main.c        ****   /* Don't use buffer for stdin */
  31:main.c        ****   setbuf(stdin, NULL);
ARM GAS  C:\Users\mikal\AppData\Local\Temp\cc6mcObI.s 			page 2


  32:main.c        **** 
  33:main.c        ****   /* Clear terminal window */
  34:main.c        ****   printf(TC_CLS);
  35:main.c        ****   printf(TC_HOME);
  36:main.c        **** 
  37:main.c        ****   if(UserFunctions_Init() != true)
  38:main.c        ****   {
  39:main.c        ****       printf(TC_RED"ERROR: Can't initialize..\r\n");
  40:main.c        ****       //Error_Handler();
  41:main.c        ****   }
  42:main.c        **** 
  43:main.c        ****   printf(TC_MAGENTA"---------------- UART<->I2C Controller ---------------");
  44:main.c        ****   UartAPI_PrintMenu();
  45:main.c        **** 
  46:main.c        ****   /* Infinite loop */
  47:main.c        ****   while (1)
  48:main.c        ****   {
  49:main.c        ****       UartAPI_WaitForCommandAndExecute();
  50:main.c        ****   }
  51:main.c        **** }
  52:main.c        **** 
  53:main.c        **** /**
  54:main.c        ****   * @brief System Clock Configuration
  55:main.c        ****   * @retval None
  56:main.c        ****   */
  57:main.c        **** void SystemClock_Config(void)
  58:main.c        **** {
  59:main.c        ****   RCC_OscInitTypeDef RCC_OscInitStruct = {0};
  60:main.c        ****   RCC_ClkInitTypeDef RCC_ClkInitStruct = {0};
  61:main.c        ****   RCC_PeriphCLKInitTypeDef PeriphClkInit = {0};
  62:main.c        **** 
  63:main.c        ****   /** Initializes the RCC Oscillators according to the specified parameters
  64:main.c        ****   * in the RCC_OscInitTypeDef structure.
  65:main.c        ****   */
  66:main.c        ****   RCC_OscInitStruct.OscillatorType = RCC_OSCILLATORTYPE_MSI;
  67:main.c        ****   RCC_OscInitStruct.MSIState = RCC_MSI_ON;
  68:main.c        ****   RCC_OscInitStruct.MSICalibrationValue = 0;
  69:main.c        ****   RCC_OscInitStruct.MSIClockRange = RCC_MSIRANGE_6;
  70:main.c        ****   RCC_OscInitStruct.PLL.PLLState = RCC_PLL_ON;
  71:main.c        ****   RCC_OscInitStruct.PLL.PLLSource = RCC_PLLSOURCE_MSI;
  72:main.c        ****   RCC_OscInitStruct.PLL.PLLM = 1;
  73:main.c        ****   RCC_OscInitStruct.PLL.PLLN = 40;
  74:main.c        ****   RCC_OscInitStruct.PLL.PLLP = RCC_PLLP_DIV7;
  75:main.c        ****   RCC_OscInitStruct.PLL.PLLQ = RCC_PLLQ_DIV2;
  76:main.c        ****   RCC_OscInitStruct.PLL.PLLR = RCC_PLLR_DIV2;
  77:main.c        ****   if (HAL_RCC_OscConfig(&RCC_OscInitStruct) != HAL_OK)
  78:main.c        ****   {
  79:main.c        ****     Error_Handler();
  80:main.c        ****   }
  81:main.c        ****   /** Initializes the CPU, AHB and APB buses clocks
  82:main.c        ****   */
  83:main.c        ****   RCC_ClkInitStruct.ClockType = RCC_CLOCKTYPE_HCLK|RCC_CLOCKTYPE_SYSCLK
  84:main.c        ****                               |RCC_CLOCKTYPE_PCLK1|RCC_CLOCKTYPE_PCLK2;
  85:main.c        ****   RCC_ClkInitStruct.SYSCLKSource = RCC_SYSCLKSOURCE_PLLCLK;
  86:main.c        ****   RCC_ClkInitStruct.AHBCLKDivider = RCC_SYSCLK_DIV1;
  87:main.c        ****   RCC_ClkInitStruct.APB1CLKDivider = RCC_HCLK_DIV1;
  88:main.c        ****   RCC_ClkInitStruct.APB2CLKDivider = RCC_HCLK_DIV1;
ARM GAS  C:\Users\mikal\AppData\Local\Temp\cc6mcObI.s 			page 3


  89:main.c        **** 
  90:main.c        ****   if (HAL_RCC_ClockConfig(&RCC_ClkInitStruct, FLASH_LATENCY_4) != HAL_OK)
  91:main.c        ****   {
  92:main.c        ****     Error_Handler();
  93:main.c        ****   }
  94:main.c        ****   PeriphClkInit.PeriphClockSelection = RCC_PERIPHCLK_USART1|RCC_PERIPHCLK_I2C2;
  95:main.c        ****   PeriphClkInit.Usart1ClockSelection = RCC_USART1CLKSOURCE_PCLK2;
  96:main.c        ****   PeriphClkInit.I2c2ClockSelection = RCC_I2C2CLKSOURCE_PCLK1;
  97:main.c        ****   if (HAL_RCCEx_PeriphCLKConfig(&PeriphClkInit) != HAL_OK)
  98:main.c        ****   {
  99:main.c        ****     Error_Handler();
 100:main.c        ****   }
 101:main.c        ****   /** Configure the main internal regulator output voltage
 102:main.c        ****   */
 103:main.c        ****   if (HAL_PWREx_ControlVoltageScaling(PWR_REGULATOR_VOLTAGE_SCALE1) != HAL_OK)
 104:main.c        ****   {
 105:main.c        ****     Error_Handler();
 106:main.c        ****   }
 107:main.c        **** }
 108:main.c        **** 
 109:main.c        **** 
 110:main.c        **** /**
 111:main.c        ****   * @brief GPIO Initialization Function
 112:main.c        ****   * @param None
 113:main.c        ****   * @retval None
 114:main.c        ****   */
 115:main.c        **** static void MX_GPIO_Init(void)
 116:main.c        **** {
  28              		.loc 1 116 1 view -0
  29              		.cfi_startproc
  30              		@ args = 0, pretend = 0, frame = 8
  31              		@ frame_needed = 0, uses_anonymous_args = 0
  32              		@ link register save eliminated.
  33 0000 82B0     		sub	sp, sp, #8
  34              	.LCFI0:
  35              		.cfi_def_cfa_offset 8
 117:main.c        **** 
 118:main.c        ****   /* GPIO Ports Clock Enable */
 119:main.c        ****   __HAL_RCC_GPIOB_CLK_ENABLE();
  36              		.loc 1 119 3 view .LVU1
  37              	.LBB2:
  38              		.loc 1 119 3 view .LVU2
  39              		.loc 1 119 3 view .LVU3
  40 0002 0A4B     		ldr	r3, .L3
  41 0004 DA6C     		ldr	r2, [r3, #76]
  42 0006 42F00202 		orr	r2, r2, #2
  43 000a DA64     		str	r2, [r3, #76]
  44              		.loc 1 119 3 view .LVU4
  45 000c DA6C     		ldr	r2, [r3, #76]
  46 000e 02F00202 		and	r2, r2, #2
  47 0012 0092     		str	r2, [sp]
  48              		.loc 1 119 3 view .LVU5
  49 0014 009A     		ldr	r2, [sp]
  50              	.LBE2:
  51              		.loc 1 119 3 view .LVU6
 120:main.c        ****   __HAL_RCC_GPIOA_CLK_ENABLE();
  52              		.loc 1 120 3 view .LVU7
ARM GAS  C:\Users\mikal\AppData\Local\Temp\cc6mcObI.s 			page 4


  53              	.LBB3:
  54              		.loc 1 120 3 view .LVU8
  55              		.loc 1 120 3 view .LVU9
  56 0016 DA6C     		ldr	r2, [r3, #76]
  57 0018 42F00102 		orr	r2, r2, #1
  58 001c DA64     		str	r2, [r3, #76]
  59              		.loc 1 120 3 view .LVU10
  60 001e DB6C     		ldr	r3, [r3, #76]
  61 0020 03F00103 		and	r3, r3, #1
  62 0024 0193     		str	r3, [sp, #4]
  63              		.loc 1 120 3 view .LVU11
  64 0026 019B     		ldr	r3, [sp, #4]
  65              	.LBE3:
  66              		.loc 1 120 3 view .LVU12
 121:main.c        **** 
 122:main.c        **** }
  67              		.loc 1 122 1 is_stmt 0 view .LVU13
  68 0028 02B0     		add	sp, sp, #8
  69              	.LCFI1:
  70              		.cfi_def_cfa_offset 0
  71              		@ sp needed
  72 002a 7047     		bx	lr
  73              	.L4:
  74              		.align	2
  75              	.L3:
  76 002c 00100240 		.word	1073876992
  77              		.cfi_endproc
  78              	.LFE137:
  80              		.section	.text.SystemClock_Config,"ax",%progbits
  81              		.align	1
  82              		.global	SystemClock_Config
  83              		.syntax unified
  84              		.thumb
  85              		.thumb_func
  86              		.fpu fpv4-sp-d16
  88              	SystemClock_Config:
  89              	.LFB136:
  58:main.c        ****   RCC_OscInitTypeDef RCC_OscInitStruct = {0};
  90              		.loc 1 58 1 is_stmt 1 view -0
  91              		.cfi_startproc
  92              		@ args = 0, pretend = 0, frame = 224
  93              		@ frame_needed = 0, uses_anonymous_args = 0
  94 0000 00B5     		push	{lr}
  95              	.LCFI2:
  96              		.cfi_def_cfa_offset 4
  97              		.cfi_offset 14, -4
  98 0002 B9B0     		sub	sp, sp, #228
  99              	.LCFI3:
 100              		.cfi_def_cfa_offset 232
  59:main.c        ****   RCC_ClkInitTypeDef RCC_ClkInitStruct = {0};
 101              		.loc 1 59 3 view .LVU15
  59:main.c        ****   RCC_ClkInitTypeDef RCC_ClkInitStruct = {0};
 102              		.loc 1 59 22 is_stmt 0 view .LVU16
 103 0004 4422     		movs	r2, #68
 104 0006 0021     		movs	r1, #0
 105 0008 27A8     		add	r0, sp, #156
 106 000a FFF7FEFF 		bl	memset
ARM GAS  C:\Users\mikal\AppData\Local\Temp\cc6mcObI.s 			page 5


 107              	.LVL0:
  60:main.c        ****   RCC_PeriphCLKInitTypeDef PeriphClkInit = {0};
 108              		.loc 1 60 3 is_stmt 1 view .LVU17
  60:main.c        ****   RCC_PeriphCLKInitTypeDef PeriphClkInit = {0};
 109              		.loc 1 60 22 is_stmt 0 view .LVU18
 110 000e 0021     		movs	r1, #0
 111 0010 2291     		str	r1, [sp, #136]
 112 0012 2391     		str	r1, [sp, #140]
 113 0014 2491     		str	r1, [sp, #144]
 114 0016 2591     		str	r1, [sp, #148]
 115 0018 2691     		str	r1, [sp, #152]
  61:main.c        **** 
 116              		.loc 1 61 3 is_stmt 1 view .LVU19
  61:main.c        **** 
 117              		.loc 1 61 28 is_stmt 0 view .LVU20
 118 001a 8822     		movs	r2, #136
 119 001c 6846     		mov	r0, sp
 120 001e FFF7FEFF 		bl	memset
 121              	.LVL1:
  66:main.c        ****   RCC_OscInitStruct.MSIState = RCC_MSI_ON;
 122              		.loc 1 66 3 is_stmt 1 view .LVU21
  66:main.c        ****   RCC_OscInitStruct.MSIState = RCC_MSI_ON;
 123              		.loc 1 66 36 is_stmt 0 view .LVU22
 124 0022 1023     		movs	r3, #16
 125 0024 2793     		str	r3, [sp, #156]
  67:main.c        ****   RCC_OscInitStruct.MSICalibrationValue = 0;
 126              		.loc 1 67 3 is_stmt 1 view .LVU23
  67:main.c        ****   RCC_OscInitStruct.MSICalibrationValue = 0;
 127              		.loc 1 67 30 is_stmt 0 view .LVU24
 128 0026 0122     		movs	r2, #1
 129 0028 2D92     		str	r2, [sp, #180]
  68:main.c        ****   RCC_OscInitStruct.MSIClockRange = RCC_MSIRANGE_6;
 130              		.loc 1 68 3 is_stmt 1 view .LVU25
  69:main.c        ****   RCC_OscInitStruct.PLL.PLLState = RCC_PLL_ON;
 131              		.loc 1 69 3 view .LVU26
  69:main.c        ****   RCC_OscInitStruct.PLL.PLLState = RCC_PLL_ON;
 132              		.loc 1 69 35 is_stmt 0 view .LVU27
 133 002a 6023     		movs	r3, #96
 134 002c 2F93     		str	r3, [sp, #188]
  70:main.c        ****   RCC_OscInitStruct.PLL.PLLSource = RCC_PLLSOURCE_MSI;
 135              		.loc 1 70 3 is_stmt 1 view .LVU28
  70:main.c        ****   RCC_OscInitStruct.PLL.PLLSource = RCC_PLLSOURCE_MSI;
 136              		.loc 1 70 34 is_stmt 0 view .LVU29
 137 002e 0223     		movs	r3, #2
 138 0030 3193     		str	r3, [sp, #196]
  71:main.c        ****   RCC_OscInitStruct.PLL.PLLM = 1;
 139              		.loc 1 71 3 is_stmt 1 view .LVU30
  71:main.c        ****   RCC_OscInitStruct.PLL.PLLM = 1;
 140              		.loc 1 71 35 is_stmt 0 view .LVU31
 141 0032 3292     		str	r2, [sp, #200]
  72:main.c        ****   RCC_OscInitStruct.PLL.PLLN = 40;
 142              		.loc 1 72 3 is_stmt 1 view .LVU32
  72:main.c        ****   RCC_OscInitStruct.PLL.PLLN = 40;
 143              		.loc 1 72 30 is_stmt 0 view .LVU33
 144 0034 3392     		str	r2, [sp, #204]
  73:main.c        ****   RCC_OscInitStruct.PLL.PLLP = RCC_PLLP_DIV7;
 145              		.loc 1 73 3 is_stmt 1 view .LVU34
ARM GAS  C:\Users\mikal\AppData\Local\Temp\cc6mcObI.s 			page 6


  73:main.c        ****   RCC_OscInitStruct.PLL.PLLP = RCC_PLLP_DIV7;
 146              		.loc 1 73 30 is_stmt 0 view .LVU35
 147 0036 2822     		movs	r2, #40
 148 0038 3492     		str	r2, [sp, #208]
  74:main.c        ****   RCC_OscInitStruct.PLL.PLLQ = RCC_PLLQ_DIV2;
 149              		.loc 1 74 3 is_stmt 1 view .LVU36
  74:main.c        ****   RCC_OscInitStruct.PLL.PLLQ = RCC_PLLQ_DIV2;
 150              		.loc 1 74 30 is_stmt 0 view .LVU37
 151 003a 0722     		movs	r2, #7
 152 003c 3592     		str	r2, [sp, #212]
  75:main.c        ****   RCC_OscInitStruct.PLL.PLLR = RCC_PLLR_DIV2;
 153              		.loc 1 75 3 is_stmt 1 view .LVU38
  75:main.c        ****   RCC_OscInitStruct.PLL.PLLR = RCC_PLLR_DIV2;
 154              		.loc 1 75 30 is_stmt 0 view .LVU39
 155 003e 3693     		str	r3, [sp, #216]
  76:main.c        ****   if (HAL_RCC_OscConfig(&RCC_OscInitStruct) != HAL_OK)
 156              		.loc 1 76 3 is_stmt 1 view .LVU40
  76:main.c        ****   if (HAL_RCC_OscConfig(&RCC_OscInitStruct) != HAL_OK)
 157              		.loc 1 76 30 is_stmt 0 view .LVU41
 158 0040 3793     		str	r3, [sp, #220]
  77:main.c        ****   {
 159              		.loc 1 77 3 is_stmt 1 view .LVU42
  77:main.c        ****   {
 160              		.loc 1 77 7 is_stmt 0 view .LVU43
 161 0042 27A8     		add	r0, sp, #156
 162 0044 FFF7FEFF 		bl	HAL_RCC_OscConfig
 163              	.LVL2:
  77:main.c        ****   {
 164              		.loc 1 77 6 view .LVU44
 165 0048 E8B9     		cbnz	r0, .L11
 166              	.L6:
  83:main.c        ****                               |RCC_CLOCKTYPE_PCLK1|RCC_CLOCKTYPE_PCLK2;
 167              		.loc 1 83 3 is_stmt 1 view .LVU45
  83:main.c        ****                               |RCC_CLOCKTYPE_PCLK1|RCC_CLOCKTYPE_PCLK2;
 168              		.loc 1 83 31 is_stmt 0 view .LVU46
 169 004a 0F23     		movs	r3, #15
 170 004c 2293     		str	r3, [sp, #136]
  85:main.c        ****   RCC_ClkInitStruct.AHBCLKDivider = RCC_SYSCLK_DIV1;
 171              		.loc 1 85 3 is_stmt 1 view .LVU47
  85:main.c        ****   RCC_ClkInitStruct.AHBCLKDivider = RCC_SYSCLK_DIV1;
 172              		.loc 1 85 34 is_stmt 0 view .LVU48
 173 004e 0323     		movs	r3, #3
 174 0050 2393     		str	r3, [sp, #140]
  86:main.c        ****   RCC_ClkInitStruct.APB1CLKDivider = RCC_HCLK_DIV1;
 175              		.loc 1 86 3 is_stmt 1 view .LVU49
  86:main.c        ****   RCC_ClkInitStruct.APB1CLKDivider = RCC_HCLK_DIV1;
 176              		.loc 1 86 35 is_stmt 0 view .LVU50
 177 0052 0023     		movs	r3, #0
 178 0054 2493     		str	r3, [sp, #144]
  87:main.c        ****   RCC_ClkInitStruct.APB2CLKDivider = RCC_HCLK_DIV1;
 179              		.loc 1 87 3 is_stmt 1 view .LVU51
  87:main.c        ****   RCC_ClkInitStruct.APB2CLKDivider = RCC_HCLK_DIV1;
 180              		.loc 1 87 36 is_stmt 0 view .LVU52
 181 0056 2593     		str	r3, [sp, #148]
  88:main.c        **** 
 182              		.loc 1 88 3 is_stmt 1 view .LVU53
  88:main.c        **** 
ARM GAS  C:\Users\mikal\AppData\Local\Temp\cc6mcObI.s 			page 7


 183              		.loc 1 88 36 is_stmt 0 view .LVU54
 184 0058 2693     		str	r3, [sp, #152]
  90:main.c        ****   {
 185              		.loc 1 90 3 is_stmt 1 view .LVU55
  90:main.c        ****   {
 186              		.loc 1 90 7 is_stmt 0 view .LVU56
 187 005a 0421     		movs	r1, #4
 188 005c 22A8     		add	r0, sp, #136
 189 005e FFF7FEFF 		bl	HAL_RCC_ClockConfig
 190              	.LVL3:
  90:main.c        ****   {
 191              		.loc 1 90 6 view .LVU57
 192 0062 98B9     		cbnz	r0, .L12
 193              	.L7:
  94:main.c        ****   PeriphClkInit.Usart1ClockSelection = RCC_USART1CLKSOURCE_PCLK2;
 194              		.loc 1 94 3 is_stmt 1 view .LVU58
  94:main.c        ****   PeriphClkInit.Usart1ClockSelection = RCC_USART1CLKSOURCE_PCLK2;
 195              		.loc 1 94 38 is_stmt 0 view .LVU59
 196 0064 8123     		movs	r3, #129
 197 0066 0093     		str	r3, [sp]
  95:main.c        ****   PeriphClkInit.I2c2ClockSelection = RCC_I2C2CLKSOURCE_PCLK1;
 198              		.loc 1 95 3 is_stmt 1 view .LVU60
  95:main.c        ****   PeriphClkInit.I2c2ClockSelection = RCC_I2C2CLKSOURCE_PCLK1;
 199              		.loc 1 95 38 is_stmt 0 view .LVU61
 200 0068 0023     		movs	r3, #0
 201 006a 0E93     		str	r3, [sp, #56]
  96:main.c        ****   if (HAL_RCCEx_PeriphCLKConfig(&PeriphClkInit) != HAL_OK)
 202              		.loc 1 96 3 is_stmt 1 view .LVU62
  96:main.c        ****   if (HAL_RCCEx_PeriphCLKConfig(&PeriphClkInit) != HAL_OK)
 203              		.loc 1 96 36 is_stmt 0 view .LVU63
 204 006c 1593     		str	r3, [sp, #84]
  97:main.c        ****   {
 205              		.loc 1 97 3 is_stmt 1 view .LVU64
  97:main.c        ****   {
 206              		.loc 1 97 7 is_stmt 0 view .LVU65
 207 006e 6846     		mov	r0, sp
 208 0070 FFF7FEFF 		bl	HAL_RCCEx_PeriphCLKConfig
 209              	.LVL4:
  97:main.c        ****   {
 210              		.loc 1 97 6 view .LVU66
 211 0074 68B9     		cbnz	r0, .L13
 212              	.L8:
 103:main.c        ****   {
 213              		.loc 1 103 3 is_stmt 1 view .LVU67
 103:main.c        ****   {
 214              		.loc 1 103 7 is_stmt 0 view .LVU68
 215 0076 4FF40070 		mov	r0, #512
 216 007a FFF7FEFF 		bl	HAL_PWREx_ControlVoltageScaling
 217              	.LVL5:
 103:main.c        ****   {
 218              		.loc 1 103 6 view .LVU69
 219 007e 58B9     		cbnz	r0, .L14
 220              	.L5:
 107:main.c        **** 
 221              		.loc 1 107 1 view .LVU70
 222 0080 39B0     		add	sp, sp, #228
 223              	.LCFI4:
ARM GAS  C:\Users\mikal\AppData\Local\Temp\cc6mcObI.s 			page 8


 224              		.cfi_remember_state
 225              		.cfi_def_cfa_offset 4
 226              		@ sp needed
 227 0082 5DF804FB 		ldr	pc, [sp], #4
 228              	.L11:
 229              	.LCFI5:
 230              		.cfi_restore_state
  79:main.c        ****   }
 231              		.loc 1 79 5 is_stmt 1 view .LVU71
 232 0086 FFF7FEFF 		bl	Error_Handler
 233              	.LVL6:
 234 008a DEE7     		b	.L6
 235              	.L12:
  92:main.c        ****   }
 236              		.loc 1 92 5 view .LVU72
 237 008c FFF7FEFF 		bl	Error_Handler
 238              	.LVL7:
 239 0090 E8E7     		b	.L7
 240              	.L13:
  99:main.c        ****   }
 241              		.loc 1 99 5 view .LVU73
 242 0092 FFF7FEFF 		bl	Error_Handler
 243              	.LVL8:
 244 0096 EEE7     		b	.L8
 245              	.L14:
 105:main.c        ****   }
 246              		.loc 1 105 5 view .LVU74
 247 0098 FFF7FEFF 		bl	Error_Handler
 248              	.LVL9:
 107:main.c        **** 
 249              		.loc 1 107 1 is_stmt 0 view .LVU75
 250 009c F0E7     		b	.L5
 251              		.cfi_endproc
 252              	.LFE136:
 254              		.section	.rodata.main.str1.4,"aMS",%progbits,1
 255              		.align	2
 256              	.LC0:
 257 0000 1B5B324A 		.ascii	"\033[2J\000"
 257      00
 258 0005 000000   		.align	2
 259              	.LC1:
 260 0008 1B5B4800 		.ascii	"\033[H\000"
 261              		.align	2
 262              	.LC2:
 263 000c 1B5B3331 		.ascii	"\033[31mERROR: Can't initialize..\015\000"
 263      6D455252 
 263      4F523A20 
 263      43616E27 
 263      7420696E 
 264              		.align	2
 265              	.LC3:
 266 002c 1B5B3335 		.ascii	"\033[35m---------------- UART<->I2C Controller ----"
 266      6D2D2D2D 
 266      2D2D2D2D 
 266      2D2D2D2D 
 266      2D2D2D2D 
 267 005c 2D2D2D2D 		.ascii	"-----------\000"
ARM GAS  C:\Users\mikal\AppData\Local\Temp\cc6mcObI.s 			page 9


 267      2D2D2D2D 
 267      2D2D2D00 
 268              		.section	.text.main,"ax",%progbits
 269              		.align	1
 270              		.global	main
 271              		.syntax unified
 272              		.thumb
 273              		.thumb_func
 274              		.fpu fpv4-sp-d16
 276              	main:
 277              	.LFB135:
  15:main.c        ****     bool i2c_fast_speed = false;
 278              		.loc 1 15 1 is_stmt 1 view -0
 279              		.cfi_startproc
 280              		@ args = 0, pretend = 0, frame = 0
 281              		@ frame_needed = 0, uses_anonymous_args = 0
 282 0000 08B5     		push	{r3, lr}
 283              	.LCFI6:
 284              		.cfi_def_cfa_offset 8
 285              		.cfi_offset 3, -8
 286              		.cfi_offset 14, -4
  16:main.c        **** 
 287              		.loc 1 16 5 view .LVU77
 288              	.LVL10:
  19:main.c        **** 
 289              		.loc 1 19 3 view .LVU78
 290 0002 FFF7FEFF 		bl	HAL_Init
 291              	.LVL11:
  22:main.c        **** 
 292              		.loc 1 22 3 view .LVU79
 293 0006 FFF7FEFF 		bl	SystemClock_Config
 294              	.LVL12:
  25:main.c        **** 
 295              		.loc 1 25 3 view .LVU80
 296 000a FFF7FEFF 		bl	MX_GPIO_Init
 297              	.LVL13:
  27:main.c        ****   UartAPI_Init();
 298              		.loc 1 27 3 view .LVU81
 299 000e 0020     		movs	r0, #0
 300 0010 FFF7FEFF 		bl	I2C_API_Init
 301              	.LVL14:
  28:main.c        **** 
 302              		.loc 1 28 3 view .LVU82
 303 0014 FFF7FEFF 		bl	UartAPI_Init
 304              	.LVL15:
  31:main.c        **** 
 305              		.loc 1 31 3 view .LVU83
  31:main.c        **** 
 306              		.loc 1 31 10 is_stmt 0 view .LVU84
 307 0018 0D4B     		ldr	r3, .L20
 308 001a 1B68     		ldr	r3, [r3]
  31:main.c        **** 
 309              		.loc 1 31 3 view .LVU85
 310 001c 0021     		movs	r1, #0
 311 001e 5868     		ldr	r0, [r3, #4]
 312 0020 FFF7FEFF 		bl	setbuf
 313              	.LVL16:
ARM GAS  C:\Users\mikal\AppData\Local\Temp\cc6mcObI.s 			page 10


  34:main.c        ****   printf(TC_HOME);
 314              		.loc 1 34 3 is_stmt 1 view .LVU86
 315 0024 0B48     		ldr	r0, .L20+4
 316 0026 FFF7FEFF 		bl	printf
 317              	.LVL17:
  35:main.c        **** 
 318              		.loc 1 35 3 view .LVU87
 319 002a 0B48     		ldr	r0, .L20+8
 320 002c FFF7FEFF 		bl	printf
 321              	.LVL18:
  37:main.c        ****   {
 322              		.loc 1 37 3 view .LVU88
  37:main.c        ****   {
 323              		.loc 1 37 6 is_stmt 0 view .LVU89
 324 0030 FFF7FEFF 		bl	UserFunctions_Init
 325              	.LVL19:
  37:main.c        ****   {
 326              		.loc 1 37 5 view .LVU90
 327 0034 38B1     		cbz	r0, .L19
 328              	.L16:
  43:main.c        ****   UartAPI_PrintMenu();
 329              		.loc 1 43 3 is_stmt 1 view .LVU91
 330 0036 0948     		ldr	r0, .L20+12
 331 0038 FFF7FEFF 		bl	printf
 332              	.LVL20:
  44:main.c        **** 
 333              		.loc 1 44 3 view .LVU92
 334 003c FFF7FEFF 		bl	UartAPI_PrintMenu
 335              	.LVL21:
 336              	.L17:
  47:main.c        ****   {
 337              		.loc 1 47 3 discriminator 1 view .LVU93
  49:main.c        ****   }
 338              		.loc 1 49 7 discriminator 1 view .LVU94
 339 0040 FFF7FEFF 		bl	UartAPI_WaitForCommandAndExecute
 340              	.LVL22:
  47:main.c        ****   {
 341              		.loc 1 47 9 discriminator 1 view .LVU95
 342 0044 FCE7     		b	.L17
 343              	.L19:
  39:main.c        ****       //Error_Handler();
 344              		.loc 1 39 7 view .LVU96
 345 0046 0648     		ldr	r0, .L20+16
 346 0048 FFF7FEFF 		bl	puts
 347              	.LVL23:
 348 004c F3E7     		b	.L16
 349              	.L21:
 350 004e 00BF     		.align	2
 351              	.L20:
 352 0050 00000000 		.word	_impure_ptr
 353 0054 00000000 		.word	.LC0
 354 0058 08000000 		.word	.LC1
 355 005c 2C000000 		.word	.LC3
 356 0060 0C000000 		.word	.LC2
 357              		.cfi_endproc
 358              	.LFE135:
 360              		.text
ARM GAS  C:\Users\mikal\AppData\Local\Temp\cc6mcObI.s 			page 11


 361              	.Letext0:
 362              		.file 2 "c:\\gnu arm embedded toolchain\\10 2021.07\\arm-none-eabi\\include\\machine\\_default_typ
 363              		.file 3 "c:\\gnu arm embedded toolchain\\10 2021.07\\arm-none-eabi\\include\\sys\\_stdint.h"
 364              		.file 4 "drivers/CMSIS/Device/ST/STM32L4xx/Include/stm32l475xx.h"
 365              		.file 5 "drivers/STM32L4xx_HAL_Driver/Inc/stm32l4xx_hal_rcc.h"
 366              		.file 6 "drivers/STM32L4xx_HAL_Driver/Inc/stm32l4xx_hal_rcc_ex.h"
 367              		.file 7 "c:\\gnu arm embedded toolchain\\10 2021.07\\lib\\gcc\\arm-none-eabi\\10.3.1\\include\\std
 368              		.file 8 "c:\\gnu arm embedded toolchain\\10 2021.07\\arm-none-eabi\\include\\sys\\_types.h"
 369              		.file 9 "c:\\gnu arm embedded toolchain\\10 2021.07\\arm-none-eabi\\include\\sys\\reent.h"
 370              		.file 10 "c:\\gnu arm embedded toolchain\\10 2021.07\\arm-none-eabi\\include\\sys\\lock.h"
 371              		.file 11 "drivers/STM32L4xx_HAL_Driver/Inc/stm32l4xx_hal_pwr_ex.h"
 372              		.file 12 "../inc/error.h"
 373              		.file 13 "drivers/STM32L4xx_HAL_Driver/Inc/stm32l4xx_hal.h"
 374              		.file 14 "../inc/i2c_api.h"
 375              		.file 15 "../inc/uart_api.h"
 376              		.file 16 "c:\\gnu arm embedded toolchain\\10 2021.07\\arm-none-eabi\\include\\stdio.h"
 377              		.file 17 "../inc/user_functions.h"
 378              		.file 18 "<built-in>"
 379              		.file 19 "drivers/STM32L4xx_HAL_Driver/Inc/stm32l4xx_hal_def.h"
ARM GAS  C:\Users\mikal\AppData\Local\Temp\cc6mcObI.s 			page 12

