ARM GAS  C:\Users\mikal\AppData\Local\Temp\cctQ2Bzi.s 			page 1


   1              		.cpu cortex-m4
   2              		.eabi_attribute 27, 1
   3              		.eabi_attribute 28, 1
   4              		.eabi_attribute 20, 1
   5              		.eabi_attribute 21, 1
   6              		.eabi_attribute 23, 3
   7              		.eabi_attribute 24, 1
   8              		.eabi_attribute 25, 1
   9              		.eabi_attribute 26, 1
  10              		.eabi_attribute 30, 1
  11              		.eabi_attribute 34, 1
  12              		.eabi_attribute 18, 4
  13              		.file	"stm32l4xx_hal_flash.c"
  14              		.text
  15              	.Ltext0:
  16              		.cfi_sections	.debug_frame
  17              		.section	.text.FLASH_Program_DoubleWord,"ax",%progbits
  18              		.align	1
  19              		.arch armv7e-m
  20              		.syntax unified
  21              		.thumb
  22              		.thumb_func
  23              		.fpu fpv4-sp-d16
  25              	FLASH_Program_DoubleWord:
  26              	.LVL0:
  27              	.LFB144:
  28              		.file 1 "drivers/STM32L4xx_HAL_Driver/Src/stm32l4xx_hal_flash.c"
   1:drivers/STM32L4xx_HAL_Driver/Src/stm32l4xx_hal_flash.c **** /**
   2:drivers/STM32L4xx_HAL_Driver/Src/stm32l4xx_hal_flash.c ****   ******************************************************************************
   3:drivers/STM32L4xx_HAL_Driver/Src/stm32l4xx_hal_flash.c ****   * @file    stm32l4xx_hal_flash.c
   4:drivers/STM32L4xx_HAL_Driver/Src/stm32l4xx_hal_flash.c ****   * @author  MCD Application Team
   5:drivers/STM32L4xx_HAL_Driver/Src/stm32l4xx_hal_flash.c ****   * @brief   FLASH HAL module driver.
   6:drivers/STM32L4xx_HAL_Driver/Src/stm32l4xx_hal_flash.c ****   *          This file provides firmware functions to manage the following
   7:drivers/STM32L4xx_HAL_Driver/Src/stm32l4xx_hal_flash.c ****   *          functionalities of the internal FLASH memory:
   8:drivers/STM32L4xx_HAL_Driver/Src/stm32l4xx_hal_flash.c ****   *           + Program operations functions
   9:drivers/STM32L4xx_HAL_Driver/Src/stm32l4xx_hal_flash.c ****   *           + Memory Control functions
  10:drivers/STM32L4xx_HAL_Driver/Src/stm32l4xx_hal_flash.c ****   *           + Peripheral Errors functions
  11:drivers/STM32L4xx_HAL_Driver/Src/stm32l4xx_hal_flash.c ****   *
  12:drivers/STM32L4xx_HAL_Driver/Src/stm32l4xx_hal_flash.c ****  @verbatim
  13:drivers/STM32L4xx_HAL_Driver/Src/stm32l4xx_hal_flash.c ****   ==============================================================================
  14:drivers/STM32L4xx_HAL_Driver/Src/stm32l4xx_hal_flash.c ****                         ##### FLASH peripheral features #####
  15:drivers/STM32L4xx_HAL_Driver/Src/stm32l4xx_hal_flash.c ****   ==============================================================================
  16:drivers/STM32L4xx_HAL_Driver/Src/stm32l4xx_hal_flash.c **** 
  17:drivers/STM32L4xx_HAL_Driver/Src/stm32l4xx_hal_flash.c ****   [..] The Flash memory interface manages CPU AHB I-Code and D-Code accesses
  18:drivers/STM32L4xx_HAL_Driver/Src/stm32l4xx_hal_flash.c ****        to the Flash memory. It implements the erase and program Flash memory operations
  19:drivers/STM32L4xx_HAL_Driver/Src/stm32l4xx_hal_flash.c ****        and the read and write protection mechanisms.
  20:drivers/STM32L4xx_HAL_Driver/Src/stm32l4xx_hal_flash.c **** 
  21:drivers/STM32L4xx_HAL_Driver/Src/stm32l4xx_hal_flash.c ****   [..] The Flash memory interface accelerates code execution with a system of instruction
  22:drivers/STM32L4xx_HAL_Driver/Src/stm32l4xx_hal_flash.c ****        prefetch and cache lines.
  23:drivers/STM32L4xx_HAL_Driver/Src/stm32l4xx_hal_flash.c **** 
  24:drivers/STM32L4xx_HAL_Driver/Src/stm32l4xx_hal_flash.c ****   [..] The FLASH main features are:
  25:drivers/STM32L4xx_HAL_Driver/Src/stm32l4xx_hal_flash.c ****       (+) Flash memory read operations
  26:drivers/STM32L4xx_HAL_Driver/Src/stm32l4xx_hal_flash.c ****       (+) Flash memory program/erase operations
  27:drivers/STM32L4xx_HAL_Driver/Src/stm32l4xx_hal_flash.c ****       (+) Read / write protections
  28:drivers/STM32L4xx_HAL_Driver/Src/stm32l4xx_hal_flash.c ****       (+) Option bytes programming
  29:drivers/STM32L4xx_HAL_Driver/Src/stm32l4xx_hal_flash.c ****       (+) Prefetch on I-Code
  30:drivers/STM32L4xx_HAL_Driver/Src/stm32l4xx_hal_flash.c ****       (+) 32 cache lines of 4*64 bits on I-Code
ARM GAS  C:\Users\mikal\AppData\Local\Temp\cctQ2Bzi.s 			page 2


  31:drivers/STM32L4xx_HAL_Driver/Src/stm32l4xx_hal_flash.c ****       (+) 8 cache lines of 4*64 bits on D-Code
  32:drivers/STM32L4xx_HAL_Driver/Src/stm32l4xx_hal_flash.c ****       (+) Error code correction (ECC) : Data in flash are 72-bits word
  33:drivers/STM32L4xx_HAL_Driver/Src/stm32l4xx_hal_flash.c ****           (8 bits added per double word)
  34:drivers/STM32L4xx_HAL_Driver/Src/stm32l4xx_hal_flash.c **** 
  35:drivers/STM32L4xx_HAL_Driver/Src/stm32l4xx_hal_flash.c **** 
  36:drivers/STM32L4xx_HAL_Driver/Src/stm32l4xx_hal_flash.c ****                         ##### How to use this driver #####
  37:drivers/STM32L4xx_HAL_Driver/Src/stm32l4xx_hal_flash.c ****  ==============================================================================
  38:drivers/STM32L4xx_HAL_Driver/Src/stm32l4xx_hal_flash.c ****     [..]
  39:drivers/STM32L4xx_HAL_Driver/Src/stm32l4xx_hal_flash.c ****       This driver provides functions and macros to configure and program the FLASH
  40:drivers/STM32L4xx_HAL_Driver/Src/stm32l4xx_hal_flash.c ****       memory of all STM32L4xx devices.
  41:drivers/STM32L4xx_HAL_Driver/Src/stm32l4xx_hal_flash.c **** 
  42:drivers/STM32L4xx_HAL_Driver/Src/stm32l4xx_hal_flash.c ****       (#) Flash Memory IO Programming functions:
  43:drivers/STM32L4xx_HAL_Driver/Src/stm32l4xx_hal_flash.c ****            (++) Lock and Unlock the FLASH interface using HAL_FLASH_Unlock() and
  44:drivers/STM32L4xx_HAL_Driver/Src/stm32l4xx_hal_flash.c ****                 HAL_FLASH_Lock() functions
  45:drivers/STM32L4xx_HAL_Driver/Src/stm32l4xx_hal_flash.c ****            (++) Program functions: double word and fast program (full row programming)
  46:drivers/STM32L4xx_HAL_Driver/Src/stm32l4xx_hal_flash.c ****            (++) There Two modes of programming :
  47:drivers/STM32L4xx_HAL_Driver/Src/stm32l4xx_hal_flash.c ****             (+++) Polling mode using HAL_FLASH_Program() function
  48:drivers/STM32L4xx_HAL_Driver/Src/stm32l4xx_hal_flash.c ****             (+++) Interrupt mode using HAL_FLASH_Program_IT() function
  49:drivers/STM32L4xx_HAL_Driver/Src/stm32l4xx_hal_flash.c **** 
  50:drivers/STM32L4xx_HAL_Driver/Src/stm32l4xx_hal_flash.c ****       (#) Interrupts and flags management functions :
  51:drivers/STM32L4xx_HAL_Driver/Src/stm32l4xx_hal_flash.c ****            (++) Handle FLASH interrupts by calling HAL_FLASH_IRQHandler()
  52:drivers/STM32L4xx_HAL_Driver/Src/stm32l4xx_hal_flash.c ****            (++) Callback functions are called when the flash operations are finished :
  53:drivers/STM32L4xx_HAL_Driver/Src/stm32l4xx_hal_flash.c ****                 HAL_FLASH_EndOfOperationCallback() when everything is ok, otherwise
  54:drivers/STM32L4xx_HAL_Driver/Src/stm32l4xx_hal_flash.c ****                 HAL_FLASH_OperationErrorCallback()
  55:drivers/STM32L4xx_HAL_Driver/Src/stm32l4xx_hal_flash.c ****            (++) Get error flag status by calling HAL_GetError()
  56:drivers/STM32L4xx_HAL_Driver/Src/stm32l4xx_hal_flash.c **** 
  57:drivers/STM32L4xx_HAL_Driver/Src/stm32l4xx_hal_flash.c ****       (#) Option bytes management functions :
  58:drivers/STM32L4xx_HAL_Driver/Src/stm32l4xx_hal_flash.c ****            (++) Lock and Unlock the option bytes using HAL_FLASH_OB_Unlock() and
  59:drivers/STM32L4xx_HAL_Driver/Src/stm32l4xx_hal_flash.c ****                 HAL_FLASH_OB_Lock() functions
  60:drivers/STM32L4xx_HAL_Driver/Src/stm32l4xx_hal_flash.c ****            (++) Launch the reload of the option bytes using HAL_FLASH_Launch() function.
  61:drivers/STM32L4xx_HAL_Driver/Src/stm32l4xx_hal_flash.c ****                 In this case, a reset is generated
  62:drivers/STM32L4xx_HAL_Driver/Src/stm32l4xx_hal_flash.c **** 
  63:drivers/STM32L4xx_HAL_Driver/Src/stm32l4xx_hal_flash.c ****     [..]
  64:drivers/STM32L4xx_HAL_Driver/Src/stm32l4xx_hal_flash.c ****       In addition to these functions, this driver includes a set of macros allowing
  65:drivers/STM32L4xx_HAL_Driver/Src/stm32l4xx_hal_flash.c ****       to handle the following operations:
  66:drivers/STM32L4xx_HAL_Driver/Src/stm32l4xx_hal_flash.c ****        (+) Set the latency
  67:drivers/STM32L4xx_HAL_Driver/Src/stm32l4xx_hal_flash.c ****        (+) Enable/Disable the prefetch buffer
  68:drivers/STM32L4xx_HAL_Driver/Src/stm32l4xx_hal_flash.c ****        (+) Enable/Disable the Instruction cache and the Data cache
  69:drivers/STM32L4xx_HAL_Driver/Src/stm32l4xx_hal_flash.c ****        (+) Reset the Instruction cache and the Data cache
  70:drivers/STM32L4xx_HAL_Driver/Src/stm32l4xx_hal_flash.c ****        (+) Enable/Disable the Flash power-down during low-power run and sleep modes
  71:drivers/STM32L4xx_HAL_Driver/Src/stm32l4xx_hal_flash.c ****        (+) Enable/Disable the Flash interrupts
  72:drivers/STM32L4xx_HAL_Driver/Src/stm32l4xx_hal_flash.c ****        (+) Monitor the Flash flags status
  73:drivers/STM32L4xx_HAL_Driver/Src/stm32l4xx_hal_flash.c **** 
  74:drivers/STM32L4xx_HAL_Driver/Src/stm32l4xx_hal_flash.c ****  @endverbatim
  75:drivers/STM32L4xx_HAL_Driver/Src/stm32l4xx_hal_flash.c ****   ******************************************************************************
  76:drivers/STM32L4xx_HAL_Driver/Src/stm32l4xx_hal_flash.c ****   * @attention
  77:drivers/STM32L4xx_HAL_Driver/Src/stm32l4xx_hal_flash.c ****   *
  78:drivers/STM32L4xx_HAL_Driver/Src/stm32l4xx_hal_flash.c ****   * <h2><center>&copy; Copyright (c) 2017 STMicroelectronics.
  79:drivers/STM32L4xx_HAL_Driver/Src/stm32l4xx_hal_flash.c ****   * All rights reserved.</center></h2>
  80:drivers/STM32L4xx_HAL_Driver/Src/stm32l4xx_hal_flash.c ****   *
  81:drivers/STM32L4xx_HAL_Driver/Src/stm32l4xx_hal_flash.c ****   * This software component is licensed by ST under BSD 3-Clause license,
  82:drivers/STM32L4xx_HAL_Driver/Src/stm32l4xx_hal_flash.c ****   * the "License"; You may not use this file except in compliance with the
  83:drivers/STM32L4xx_HAL_Driver/Src/stm32l4xx_hal_flash.c ****   * License. You may obtain a copy of the License at:
  84:drivers/STM32L4xx_HAL_Driver/Src/stm32l4xx_hal_flash.c ****   *                       opensource.org/licenses/BSD-3-Clause
  85:drivers/STM32L4xx_HAL_Driver/Src/stm32l4xx_hal_flash.c ****   *
  86:drivers/STM32L4xx_HAL_Driver/Src/stm32l4xx_hal_flash.c ****   ******************************************************************************
  87:drivers/STM32L4xx_HAL_Driver/Src/stm32l4xx_hal_flash.c ****   */
ARM GAS  C:\Users\mikal\AppData\Local\Temp\cctQ2Bzi.s 			page 3


  88:drivers/STM32L4xx_HAL_Driver/Src/stm32l4xx_hal_flash.c **** 
  89:drivers/STM32L4xx_HAL_Driver/Src/stm32l4xx_hal_flash.c **** /* Includes ------------------------------------------------------------------*/
  90:drivers/STM32L4xx_HAL_Driver/Src/stm32l4xx_hal_flash.c **** #include "stm32l4xx_hal.h"
  91:drivers/STM32L4xx_HAL_Driver/Src/stm32l4xx_hal_flash.c **** 
  92:drivers/STM32L4xx_HAL_Driver/Src/stm32l4xx_hal_flash.c **** /** @addtogroup STM32L4xx_HAL_Driver
  93:drivers/STM32L4xx_HAL_Driver/Src/stm32l4xx_hal_flash.c ****   * @{
  94:drivers/STM32L4xx_HAL_Driver/Src/stm32l4xx_hal_flash.c ****   */
  95:drivers/STM32L4xx_HAL_Driver/Src/stm32l4xx_hal_flash.c **** 
  96:drivers/STM32L4xx_HAL_Driver/Src/stm32l4xx_hal_flash.c **** /** @defgroup FLASH FLASH
  97:drivers/STM32L4xx_HAL_Driver/Src/stm32l4xx_hal_flash.c ****   * @brief FLASH HAL module driver
  98:drivers/STM32L4xx_HAL_Driver/Src/stm32l4xx_hal_flash.c ****   * @{
  99:drivers/STM32L4xx_HAL_Driver/Src/stm32l4xx_hal_flash.c ****   */
 100:drivers/STM32L4xx_HAL_Driver/Src/stm32l4xx_hal_flash.c **** 
 101:drivers/STM32L4xx_HAL_Driver/Src/stm32l4xx_hal_flash.c **** #ifdef HAL_FLASH_MODULE_ENABLED
 102:drivers/STM32L4xx_HAL_Driver/Src/stm32l4xx_hal_flash.c **** 
 103:drivers/STM32L4xx_HAL_Driver/Src/stm32l4xx_hal_flash.c **** /* Private typedef -----------------------------------------------------------*/
 104:drivers/STM32L4xx_HAL_Driver/Src/stm32l4xx_hal_flash.c **** /* Private defines -----------------------------------------------------------*/
 105:drivers/STM32L4xx_HAL_Driver/Src/stm32l4xx_hal_flash.c **** #if defined (STM32L4P5xx) || defined (STM32L4Q5xx) || defined (STM32L4R5xx) || defined (STM32L4R7xx
 106:drivers/STM32L4xx_HAL_Driver/Src/stm32l4xx_hal_flash.c **** #define FLASH_NB_DOUBLE_WORDS_IN_ROW  64
 107:drivers/STM32L4xx_HAL_Driver/Src/stm32l4xx_hal_flash.c **** #else
 108:drivers/STM32L4xx_HAL_Driver/Src/stm32l4xx_hal_flash.c **** #define FLASH_NB_DOUBLE_WORDS_IN_ROW  32
 109:drivers/STM32L4xx_HAL_Driver/Src/stm32l4xx_hal_flash.c **** #endif
 110:drivers/STM32L4xx_HAL_Driver/Src/stm32l4xx_hal_flash.c **** /* Private macros ------------------------------------------------------------*/
 111:drivers/STM32L4xx_HAL_Driver/Src/stm32l4xx_hal_flash.c **** /* Private variables ---------------------------------------------------------*/
 112:drivers/STM32L4xx_HAL_Driver/Src/stm32l4xx_hal_flash.c **** /** @defgroup FLASH_Private_Variables FLASH Private Variables
 113:drivers/STM32L4xx_HAL_Driver/Src/stm32l4xx_hal_flash.c ****  * @{
 114:drivers/STM32L4xx_HAL_Driver/Src/stm32l4xx_hal_flash.c ****  */
 115:drivers/STM32L4xx_HAL_Driver/Src/stm32l4xx_hal_flash.c **** /**
 116:drivers/STM32L4xx_HAL_Driver/Src/stm32l4xx_hal_flash.c ****   * @brief  Variable used for Program/Erase sectors under interruption
 117:drivers/STM32L4xx_HAL_Driver/Src/stm32l4xx_hal_flash.c ****   */
 118:drivers/STM32L4xx_HAL_Driver/Src/stm32l4xx_hal_flash.c **** FLASH_ProcessTypeDef pFlash = {.Lock = HAL_UNLOCKED, \
 119:drivers/STM32L4xx_HAL_Driver/Src/stm32l4xx_hal_flash.c ****                                .ErrorCode = HAL_FLASH_ERROR_NONE, \
 120:drivers/STM32L4xx_HAL_Driver/Src/stm32l4xx_hal_flash.c ****                                .ProcedureOnGoing = FLASH_PROC_NONE, \
 121:drivers/STM32L4xx_HAL_Driver/Src/stm32l4xx_hal_flash.c ****                                .Address = 0U, \
 122:drivers/STM32L4xx_HAL_Driver/Src/stm32l4xx_hal_flash.c ****                                .Bank = FLASH_BANK_1, \
 123:drivers/STM32L4xx_HAL_Driver/Src/stm32l4xx_hal_flash.c ****                                .Page = 0U, \
 124:drivers/STM32L4xx_HAL_Driver/Src/stm32l4xx_hal_flash.c ****                                .NbPagesToErase = 0U, \
 125:drivers/STM32L4xx_HAL_Driver/Src/stm32l4xx_hal_flash.c ****                                .CacheToReactivate = FLASH_CACHE_DISABLED};
 126:drivers/STM32L4xx_HAL_Driver/Src/stm32l4xx_hal_flash.c **** /**
 127:drivers/STM32L4xx_HAL_Driver/Src/stm32l4xx_hal_flash.c ****   * @}
 128:drivers/STM32L4xx_HAL_Driver/Src/stm32l4xx_hal_flash.c ****   */
 129:drivers/STM32L4xx_HAL_Driver/Src/stm32l4xx_hal_flash.c **** 
 130:drivers/STM32L4xx_HAL_Driver/Src/stm32l4xx_hal_flash.c **** /* Private function prototypes -----------------------------------------------*/
 131:drivers/STM32L4xx_HAL_Driver/Src/stm32l4xx_hal_flash.c **** /** @defgroup FLASH_Private_Functions FLASH Private Functions
 132:drivers/STM32L4xx_HAL_Driver/Src/stm32l4xx_hal_flash.c ****  * @{
 133:drivers/STM32L4xx_HAL_Driver/Src/stm32l4xx_hal_flash.c ****  */
 134:drivers/STM32L4xx_HAL_Driver/Src/stm32l4xx_hal_flash.c **** static void          FLASH_Program_DoubleWord(uint32_t Address, uint64_t Data);
 135:drivers/STM32L4xx_HAL_Driver/Src/stm32l4xx_hal_flash.c **** static void          FLASH_Program_Fast(uint32_t Address, uint32_t DataAddress);
 136:drivers/STM32L4xx_HAL_Driver/Src/stm32l4xx_hal_flash.c **** /**
 137:drivers/STM32L4xx_HAL_Driver/Src/stm32l4xx_hal_flash.c ****   * @}
 138:drivers/STM32L4xx_HAL_Driver/Src/stm32l4xx_hal_flash.c ****   */
 139:drivers/STM32L4xx_HAL_Driver/Src/stm32l4xx_hal_flash.c **** 
 140:drivers/STM32L4xx_HAL_Driver/Src/stm32l4xx_hal_flash.c **** /* Exported functions --------------------------------------------------------*/
 141:drivers/STM32L4xx_HAL_Driver/Src/stm32l4xx_hal_flash.c **** /** @defgroup FLASH_Exported_Functions FLASH Exported Functions
 142:drivers/STM32L4xx_HAL_Driver/Src/stm32l4xx_hal_flash.c ****   * @{
 143:drivers/STM32L4xx_HAL_Driver/Src/stm32l4xx_hal_flash.c ****   */
 144:drivers/STM32L4xx_HAL_Driver/Src/stm32l4xx_hal_flash.c **** 
ARM GAS  C:\Users\mikal\AppData\Local\Temp\cctQ2Bzi.s 			page 4


 145:drivers/STM32L4xx_HAL_Driver/Src/stm32l4xx_hal_flash.c **** /** @defgroup FLASH_Exported_Functions_Group1 Programming operation functions
 146:drivers/STM32L4xx_HAL_Driver/Src/stm32l4xx_hal_flash.c ****  *  @brief   Programming operation functions
 147:drivers/STM32L4xx_HAL_Driver/Src/stm32l4xx_hal_flash.c ****  *
 148:drivers/STM32L4xx_HAL_Driver/Src/stm32l4xx_hal_flash.c **** @verbatim
 149:drivers/STM32L4xx_HAL_Driver/Src/stm32l4xx_hal_flash.c ****  ===============================================================================
 150:drivers/STM32L4xx_HAL_Driver/Src/stm32l4xx_hal_flash.c ****                   ##### Programming operation functions #####
 151:drivers/STM32L4xx_HAL_Driver/Src/stm32l4xx_hal_flash.c ****  ===============================================================================
 152:drivers/STM32L4xx_HAL_Driver/Src/stm32l4xx_hal_flash.c ****     [..]
 153:drivers/STM32L4xx_HAL_Driver/Src/stm32l4xx_hal_flash.c ****     This subsection provides a set of functions allowing to manage the FLASH
 154:drivers/STM32L4xx_HAL_Driver/Src/stm32l4xx_hal_flash.c ****     program operations.
 155:drivers/STM32L4xx_HAL_Driver/Src/stm32l4xx_hal_flash.c **** 
 156:drivers/STM32L4xx_HAL_Driver/Src/stm32l4xx_hal_flash.c **** @endverbatim
 157:drivers/STM32L4xx_HAL_Driver/Src/stm32l4xx_hal_flash.c ****   * @{
 158:drivers/STM32L4xx_HAL_Driver/Src/stm32l4xx_hal_flash.c ****   */
 159:drivers/STM32L4xx_HAL_Driver/Src/stm32l4xx_hal_flash.c **** 
 160:drivers/STM32L4xx_HAL_Driver/Src/stm32l4xx_hal_flash.c **** /**
 161:drivers/STM32L4xx_HAL_Driver/Src/stm32l4xx_hal_flash.c ****   * @brief  Program double word or fast program of a row at a specified address.
 162:drivers/STM32L4xx_HAL_Driver/Src/stm32l4xx_hal_flash.c ****   * @param  TypeProgram  Indicate the way to program at a specified address.
 163:drivers/STM32L4xx_HAL_Driver/Src/stm32l4xx_hal_flash.c ****   *                           This parameter can be a value of @ref FLASH_Type_Program
 164:drivers/STM32L4xx_HAL_Driver/Src/stm32l4xx_hal_flash.c ****   * @param  Address  specifies the address to be programmed.
 165:drivers/STM32L4xx_HAL_Driver/Src/stm32l4xx_hal_flash.c ****   * @param  Data specifies the data to be programmed
 166:drivers/STM32L4xx_HAL_Driver/Src/stm32l4xx_hal_flash.c ****   *                This parameter is the data for the double word program and the address where
 167:drivers/STM32L4xx_HAL_Driver/Src/stm32l4xx_hal_flash.c ****   *                are stored the data for the row fast program
 168:drivers/STM32L4xx_HAL_Driver/Src/stm32l4xx_hal_flash.c ****   *
 169:drivers/STM32L4xx_HAL_Driver/Src/stm32l4xx_hal_flash.c ****   * @retval HAL_StatusTypeDef HAL Status
 170:drivers/STM32L4xx_HAL_Driver/Src/stm32l4xx_hal_flash.c ****   */
 171:drivers/STM32L4xx_HAL_Driver/Src/stm32l4xx_hal_flash.c **** HAL_StatusTypeDef HAL_FLASH_Program(uint32_t TypeProgram, uint32_t Address, uint64_t Data)
 172:drivers/STM32L4xx_HAL_Driver/Src/stm32l4xx_hal_flash.c **** {
 173:drivers/STM32L4xx_HAL_Driver/Src/stm32l4xx_hal_flash.c ****   HAL_StatusTypeDef status;
 174:drivers/STM32L4xx_HAL_Driver/Src/stm32l4xx_hal_flash.c ****   uint32_t prog_bit = 0;
 175:drivers/STM32L4xx_HAL_Driver/Src/stm32l4xx_hal_flash.c **** 
 176:drivers/STM32L4xx_HAL_Driver/Src/stm32l4xx_hal_flash.c ****   /* Process Locked */
 177:drivers/STM32L4xx_HAL_Driver/Src/stm32l4xx_hal_flash.c ****   __HAL_LOCK(&pFlash);
 178:drivers/STM32L4xx_HAL_Driver/Src/stm32l4xx_hal_flash.c **** 
 179:drivers/STM32L4xx_HAL_Driver/Src/stm32l4xx_hal_flash.c ****   /* Check the parameters */
 180:drivers/STM32L4xx_HAL_Driver/Src/stm32l4xx_hal_flash.c ****   assert_param(IS_FLASH_TYPEPROGRAM(TypeProgram));
 181:drivers/STM32L4xx_HAL_Driver/Src/stm32l4xx_hal_flash.c **** 
 182:drivers/STM32L4xx_HAL_Driver/Src/stm32l4xx_hal_flash.c ****   /* Wait for last operation to be completed */
 183:drivers/STM32L4xx_HAL_Driver/Src/stm32l4xx_hal_flash.c ****   status = FLASH_WaitForLastOperation((uint32_t)FLASH_TIMEOUT_VALUE);
 184:drivers/STM32L4xx_HAL_Driver/Src/stm32l4xx_hal_flash.c **** 
 185:drivers/STM32L4xx_HAL_Driver/Src/stm32l4xx_hal_flash.c ****   if(status == HAL_OK)
 186:drivers/STM32L4xx_HAL_Driver/Src/stm32l4xx_hal_flash.c ****   {
 187:drivers/STM32L4xx_HAL_Driver/Src/stm32l4xx_hal_flash.c ****     pFlash.ErrorCode = HAL_FLASH_ERROR_NONE;
 188:drivers/STM32L4xx_HAL_Driver/Src/stm32l4xx_hal_flash.c **** 
 189:drivers/STM32L4xx_HAL_Driver/Src/stm32l4xx_hal_flash.c ****     /* Deactivate the data cache if they are activated to avoid data misbehavior */
 190:drivers/STM32L4xx_HAL_Driver/Src/stm32l4xx_hal_flash.c ****     if(READ_BIT(FLASH->ACR, FLASH_ACR_DCEN) != 0U)
 191:drivers/STM32L4xx_HAL_Driver/Src/stm32l4xx_hal_flash.c ****     {
 192:drivers/STM32L4xx_HAL_Driver/Src/stm32l4xx_hal_flash.c ****       /* Disable data cache  */
 193:drivers/STM32L4xx_HAL_Driver/Src/stm32l4xx_hal_flash.c ****       __HAL_FLASH_DATA_CACHE_DISABLE();
 194:drivers/STM32L4xx_HAL_Driver/Src/stm32l4xx_hal_flash.c ****       pFlash.CacheToReactivate = FLASH_CACHE_DCACHE_ENABLED;
 195:drivers/STM32L4xx_HAL_Driver/Src/stm32l4xx_hal_flash.c ****     }
 196:drivers/STM32L4xx_HAL_Driver/Src/stm32l4xx_hal_flash.c ****     else
 197:drivers/STM32L4xx_HAL_Driver/Src/stm32l4xx_hal_flash.c ****     {
 198:drivers/STM32L4xx_HAL_Driver/Src/stm32l4xx_hal_flash.c ****       pFlash.CacheToReactivate = FLASH_CACHE_DISABLED;
 199:drivers/STM32L4xx_HAL_Driver/Src/stm32l4xx_hal_flash.c ****     }
 200:drivers/STM32L4xx_HAL_Driver/Src/stm32l4xx_hal_flash.c **** 
 201:drivers/STM32L4xx_HAL_Driver/Src/stm32l4xx_hal_flash.c ****     if(TypeProgram == FLASH_TYPEPROGRAM_DOUBLEWORD)
ARM GAS  C:\Users\mikal\AppData\Local\Temp\cctQ2Bzi.s 			page 5


 202:drivers/STM32L4xx_HAL_Driver/Src/stm32l4xx_hal_flash.c ****     {
 203:drivers/STM32L4xx_HAL_Driver/Src/stm32l4xx_hal_flash.c ****       /* Program double-word (64-bit) at a specified address */
 204:drivers/STM32L4xx_HAL_Driver/Src/stm32l4xx_hal_flash.c ****       FLASH_Program_DoubleWord(Address, Data);
 205:drivers/STM32L4xx_HAL_Driver/Src/stm32l4xx_hal_flash.c ****       prog_bit = FLASH_CR_PG;
 206:drivers/STM32L4xx_HAL_Driver/Src/stm32l4xx_hal_flash.c ****     }
 207:drivers/STM32L4xx_HAL_Driver/Src/stm32l4xx_hal_flash.c ****     else if((TypeProgram == FLASH_TYPEPROGRAM_FAST) || (TypeProgram == FLASH_TYPEPROGRAM_FAST_AND_L
 208:drivers/STM32L4xx_HAL_Driver/Src/stm32l4xx_hal_flash.c ****     {
 209:drivers/STM32L4xx_HAL_Driver/Src/stm32l4xx_hal_flash.c ****       /* Fast program a 32 row double-word (64-bit) at a specified address */
 210:drivers/STM32L4xx_HAL_Driver/Src/stm32l4xx_hal_flash.c ****       FLASH_Program_Fast(Address, (uint32_t)Data);
 211:drivers/STM32L4xx_HAL_Driver/Src/stm32l4xx_hal_flash.c **** 
 212:drivers/STM32L4xx_HAL_Driver/Src/stm32l4xx_hal_flash.c ****       /* If it is the last row, the bit will be cleared at the end of the operation */
 213:drivers/STM32L4xx_HAL_Driver/Src/stm32l4xx_hal_flash.c ****       if(TypeProgram == FLASH_TYPEPROGRAM_FAST_AND_LAST)
 214:drivers/STM32L4xx_HAL_Driver/Src/stm32l4xx_hal_flash.c ****       {
 215:drivers/STM32L4xx_HAL_Driver/Src/stm32l4xx_hal_flash.c ****         prog_bit = FLASH_CR_FSTPG;
 216:drivers/STM32L4xx_HAL_Driver/Src/stm32l4xx_hal_flash.c ****       }
 217:drivers/STM32L4xx_HAL_Driver/Src/stm32l4xx_hal_flash.c ****     }
 218:drivers/STM32L4xx_HAL_Driver/Src/stm32l4xx_hal_flash.c ****     else
 219:drivers/STM32L4xx_HAL_Driver/Src/stm32l4xx_hal_flash.c ****     {
 220:drivers/STM32L4xx_HAL_Driver/Src/stm32l4xx_hal_flash.c ****       /* Nothing to do */
 221:drivers/STM32L4xx_HAL_Driver/Src/stm32l4xx_hal_flash.c ****     }
 222:drivers/STM32L4xx_HAL_Driver/Src/stm32l4xx_hal_flash.c **** 
 223:drivers/STM32L4xx_HAL_Driver/Src/stm32l4xx_hal_flash.c ****     /* Wait for last operation to be completed */
 224:drivers/STM32L4xx_HAL_Driver/Src/stm32l4xx_hal_flash.c ****     status = FLASH_WaitForLastOperation((uint32_t)FLASH_TIMEOUT_VALUE);
 225:drivers/STM32L4xx_HAL_Driver/Src/stm32l4xx_hal_flash.c **** 
 226:drivers/STM32L4xx_HAL_Driver/Src/stm32l4xx_hal_flash.c ****     /* If the program operation is completed, disable the PG or FSTPG Bit */
 227:drivers/STM32L4xx_HAL_Driver/Src/stm32l4xx_hal_flash.c ****     if (prog_bit != 0U)
 228:drivers/STM32L4xx_HAL_Driver/Src/stm32l4xx_hal_flash.c ****     {
 229:drivers/STM32L4xx_HAL_Driver/Src/stm32l4xx_hal_flash.c ****       CLEAR_BIT(FLASH->CR, prog_bit);
 230:drivers/STM32L4xx_HAL_Driver/Src/stm32l4xx_hal_flash.c ****     }
 231:drivers/STM32L4xx_HAL_Driver/Src/stm32l4xx_hal_flash.c **** 
 232:drivers/STM32L4xx_HAL_Driver/Src/stm32l4xx_hal_flash.c ****     /* Flush the caches to be sure of the data consistency */
 233:drivers/STM32L4xx_HAL_Driver/Src/stm32l4xx_hal_flash.c ****     FLASH_FlushCaches();
 234:drivers/STM32L4xx_HAL_Driver/Src/stm32l4xx_hal_flash.c ****   }
 235:drivers/STM32L4xx_HAL_Driver/Src/stm32l4xx_hal_flash.c **** 
 236:drivers/STM32L4xx_HAL_Driver/Src/stm32l4xx_hal_flash.c ****   /* Process Unlocked */
 237:drivers/STM32L4xx_HAL_Driver/Src/stm32l4xx_hal_flash.c ****   __HAL_UNLOCK(&pFlash);
 238:drivers/STM32L4xx_HAL_Driver/Src/stm32l4xx_hal_flash.c **** 
 239:drivers/STM32L4xx_HAL_Driver/Src/stm32l4xx_hal_flash.c ****   return status;
 240:drivers/STM32L4xx_HAL_Driver/Src/stm32l4xx_hal_flash.c **** }
 241:drivers/STM32L4xx_HAL_Driver/Src/stm32l4xx_hal_flash.c **** 
 242:drivers/STM32L4xx_HAL_Driver/Src/stm32l4xx_hal_flash.c **** /**
 243:drivers/STM32L4xx_HAL_Driver/Src/stm32l4xx_hal_flash.c ****   * @brief  Program double word or fast program of a row at a specified address with interrupt enab
 244:drivers/STM32L4xx_HAL_Driver/Src/stm32l4xx_hal_flash.c ****   * @param  TypeProgram  Indicate the way to program at a specified address.
 245:drivers/STM32L4xx_HAL_Driver/Src/stm32l4xx_hal_flash.c ****   *                           This parameter can be a value of @ref FLASH_Type_Program
 246:drivers/STM32L4xx_HAL_Driver/Src/stm32l4xx_hal_flash.c ****   * @param  Address  specifies the address to be programmed.
 247:drivers/STM32L4xx_HAL_Driver/Src/stm32l4xx_hal_flash.c ****   * @param  Data specifies the data to be programmed
 248:drivers/STM32L4xx_HAL_Driver/Src/stm32l4xx_hal_flash.c ****   *                This parameter is the data for the double word program and the address where
 249:drivers/STM32L4xx_HAL_Driver/Src/stm32l4xx_hal_flash.c ****   *                are stored the data for the row fast program
 250:drivers/STM32L4xx_HAL_Driver/Src/stm32l4xx_hal_flash.c ****   *
 251:drivers/STM32L4xx_HAL_Driver/Src/stm32l4xx_hal_flash.c ****   * @retval HAL Status
 252:drivers/STM32L4xx_HAL_Driver/Src/stm32l4xx_hal_flash.c ****   */
 253:drivers/STM32L4xx_HAL_Driver/Src/stm32l4xx_hal_flash.c **** HAL_StatusTypeDef HAL_FLASH_Program_IT(uint32_t TypeProgram, uint32_t Address, uint64_t Data)
 254:drivers/STM32L4xx_HAL_Driver/Src/stm32l4xx_hal_flash.c **** {
 255:drivers/STM32L4xx_HAL_Driver/Src/stm32l4xx_hal_flash.c ****   HAL_StatusTypeDef status = HAL_OK;
 256:drivers/STM32L4xx_HAL_Driver/Src/stm32l4xx_hal_flash.c **** 
 257:drivers/STM32L4xx_HAL_Driver/Src/stm32l4xx_hal_flash.c ****   /* Check the parameters */
 258:drivers/STM32L4xx_HAL_Driver/Src/stm32l4xx_hal_flash.c ****   assert_param(IS_FLASH_TYPEPROGRAM(TypeProgram));
ARM GAS  C:\Users\mikal\AppData\Local\Temp\cctQ2Bzi.s 			page 6


 259:drivers/STM32L4xx_HAL_Driver/Src/stm32l4xx_hal_flash.c **** 
 260:drivers/STM32L4xx_HAL_Driver/Src/stm32l4xx_hal_flash.c ****   /* Process Locked */
 261:drivers/STM32L4xx_HAL_Driver/Src/stm32l4xx_hal_flash.c ****   __HAL_LOCK(&pFlash);
 262:drivers/STM32L4xx_HAL_Driver/Src/stm32l4xx_hal_flash.c **** 
 263:drivers/STM32L4xx_HAL_Driver/Src/stm32l4xx_hal_flash.c ****   pFlash.ErrorCode = HAL_FLASH_ERROR_NONE;
 264:drivers/STM32L4xx_HAL_Driver/Src/stm32l4xx_hal_flash.c **** 
 265:drivers/STM32L4xx_HAL_Driver/Src/stm32l4xx_hal_flash.c ****   /* Deactivate the data cache if they are activated to avoid data misbehavior */
 266:drivers/STM32L4xx_HAL_Driver/Src/stm32l4xx_hal_flash.c ****   if(READ_BIT(FLASH->ACR, FLASH_ACR_DCEN) != 0U)
 267:drivers/STM32L4xx_HAL_Driver/Src/stm32l4xx_hal_flash.c ****   {
 268:drivers/STM32L4xx_HAL_Driver/Src/stm32l4xx_hal_flash.c ****     /* Disable data cache  */
 269:drivers/STM32L4xx_HAL_Driver/Src/stm32l4xx_hal_flash.c ****     __HAL_FLASH_DATA_CACHE_DISABLE();
 270:drivers/STM32L4xx_HAL_Driver/Src/stm32l4xx_hal_flash.c ****     pFlash.CacheToReactivate = FLASH_CACHE_DCACHE_ENABLED;
 271:drivers/STM32L4xx_HAL_Driver/Src/stm32l4xx_hal_flash.c ****   }
 272:drivers/STM32L4xx_HAL_Driver/Src/stm32l4xx_hal_flash.c ****   else
 273:drivers/STM32L4xx_HAL_Driver/Src/stm32l4xx_hal_flash.c ****   {
 274:drivers/STM32L4xx_HAL_Driver/Src/stm32l4xx_hal_flash.c ****     pFlash.CacheToReactivate = FLASH_CACHE_DISABLED;
 275:drivers/STM32L4xx_HAL_Driver/Src/stm32l4xx_hal_flash.c ****   }
 276:drivers/STM32L4xx_HAL_Driver/Src/stm32l4xx_hal_flash.c **** 
 277:drivers/STM32L4xx_HAL_Driver/Src/stm32l4xx_hal_flash.c ****   /* Set internal variables used by the IRQ handler */
 278:drivers/STM32L4xx_HAL_Driver/Src/stm32l4xx_hal_flash.c ****   if(TypeProgram == FLASH_TYPEPROGRAM_FAST_AND_LAST)
 279:drivers/STM32L4xx_HAL_Driver/Src/stm32l4xx_hal_flash.c ****   {
 280:drivers/STM32L4xx_HAL_Driver/Src/stm32l4xx_hal_flash.c ****     pFlash.ProcedureOnGoing = FLASH_PROC_PROGRAM_LAST;
 281:drivers/STM32L4xx_HAL_Driver/Src/stm32l4xx_hal_flash.c ****   }
 282:drivers/STM32L4xx_HAL_Driver/Src/stm32l4xx_hal_flash.c ****   else
 283:drivers/STM32L4xx_HAL_Driver/Src/stm32l4xx_hal_flash.c ****   {
 284:drivers/STM32L4xx_HAL_Driver/Src/stm32l4xx_hal_flash.c ****     pFlash.ProcedureOnGoing = FLASH_PROC_PROGRAM;
 285:drivers/STM32L4xx_HAL_Driver/Src/stm32l4xx_hal_flash.c ****   }
 286:drivers/STM32L4xx_HAL_Driver/Src/stm32l4xx_hal_flash.c ****   pFlash.Address = Address;
 287:drivers/STM32L4xx_HAL_Driver/Src/stm32l4xx_hal_flash.c **** 
 288:drivers/STM32L4xx_HAL_Driver/Src/stm32l4xx_hal_flash.c ****   /* Enable End of Operation and Error interrupts */
 289:drivers/STM32L4xx_HAL_Driver/Src/stm32l4xx_hal_flash.c ****   __HAL_FLASH_ENABLE_IT(FLASH_IT_EOP | FLASH_IT_OPERR);
 290:drivers/STM32L4xx_HAL_Driver/Src/stm32l4xx_hal_flash.c **** 
 291:drivers/STM32L4xx_HAL_Driver/Src/stm32l4xx_hal_flash.c ****   if(TypeProgram == FLASH_TYPEPROGRAM_DOUBLEWORD)
 292:drivers/STM32L4xx_HAL_Driver/Src/stm32l4xx_hal_flash.c ****   {
 293:drivers/STM32L4xx_HAL_Driver/Src/stm32l4xx_hal_flash.c ****     /* Program double-word (64-bit) at a specified address */
 294:drivers/STM32L4xx_HAL_Driver/Src/stm32l4xx_hal_flash.c ****     FLASH_Program_DoubleWord(Address, Data);
 295:drivers/STM32L4xx_HAL_Driver/Src/stm32l4xx_hal_flash.c ****   }
 296:drivers/STM32L4xx_HAL_Driver/Src/stm32l4xx_hal_flash.c ****   else if((TypeProgram == FLASH_TYPEPROGRAM_FAST) || (TypeProgram == FLASH_TYPEPROGRAM_FAST_AND_LAS
 297:drivers/STM32L4xx_HAL_Driver/Src/stm32l4xx_hal_flash.c ****   {
 298:drivers/STM32L4xx_HAL_Driver/Src/stm32l4xx_hal_flash.c ****     /* Fast program a 32 row double-word (64-bit) at a specified address */
 299:drivers/STM32L4xx_HAL_Driver/Src/stm32l4xx_hal_flash.c ****     FLASH_Program_Fast(Address, (uint32_t)Data);
 300:drivers/STM32L4xx_HAL_Driver/Src/stm32l4xx_hal_flash.c ****   }
 301:drivers/STM32L4xx_HAL_Driver/Src/stm32l4xx_hal_flash.c ****   else
 302:drivers/STM32L4xx_HAL_Driver/Src/stm32l4xx_hal_flash.c ****   {
 303:drivers/STM32L4xx_HAL_Driver/Src/stm32l4xx_hal_flash.c ****     /* Nothing to do */
 304:drivers/STM32L4xx_HAL_Driver/Src/stm32l4xx_hal_flash.c ****   }
 305:drivers/STM32L4xx_HAL_Driver/Src/stm32l4xx_hal_flash.c **** 
 306:drivers/STM32L4xx_HAL_Driver/Src/stm32l4xx_hal_flash.c ****   return status;
 307:drivers/STM32L4xx_HAL_Driver/Src/stm32l4xx_hal_flash.c **** }
 308:drivers/STM32L4xx_HAL_Driver/Src/stm32l4xx_hal_flash.c **** 
 309:drivers/STM32L4xx_HAL_Driver/Src/stm32l4xx_hal_flash.c **** /**
 310:drivers/STM32L4xx_HAL_Driver/Src/stm32l4xx_hal_flash.c ****   * @brief Handle FLASH interrupt request.
 311:drivers/STM32L4xx_HAL_Driver/Src/stm32l4xx_hal_flash.c ****   * @retval None
 312:drivers/STM32L4xx_HAL_Driver/Src/stm32l4xx_hal_flash.c ****   */
 313:drivers/STM32L4xx_HAL_Driver/Src/stm32l4xx_hal_flash.c **** void HAL_FLASH_IRQHandler(void)
 314:drivers/STM32L4xx_HAL_Driver/Src/stm32l4xx_hal_flash.c **** {
 315:drivers/STM32L4xx_HAL_Driver/Src/stm32l4xx_hal_flash.c ****   uint32_t tmp_page;
ARM GAS  C:\Users\mikal\AppData\Local\Temp\cctQ2Bzi.s 			page 7


 316:drivers/STM32L4xx_HAL_Driver/Src/stm32l4xx_hal_flash.c ****   uint32_t error;
 317:drivers/STM32L4xx_HAL_Driver/Src/stm32l4xx_hal_flash.c ****   FLASH_ProcedureTypeDef procedure;
 318:drivers/STM32L4xx_HAL_Driver/Src/stm32l4xx_hal_flash.c **** 
 319:drivers/STM32L4xx_HAL_Driver/Src/stm32l4xx_hal_flash.c ****   /* If the operation is completed, disable the PG, PNB, MER1, MER2 and PER Bit */
 320:drivers/STM32L4xx_HAL_Driver/Src/stm32l4xx_hal_flash.c ****   CLEAR_BIT(FLASH->CR, (FLASH_CR_PG | FLASH_CR_MER1 | FLASH_CR_PER | FLASH_CR_PNB));
 321:drivers/STM32L4xx_HAL_Driver/Src/stm32l4xx_hal_flash.c **** #if defined (STM32L471xx) || defined (STM32L475xx) || defined (STM32L476xx) || defined (STM32L485xx
 322:drivers/STM32L4xx_HAL_Driver/Src/stm32l4xx_hal_flash.c ****     defined (STM32L496xx) || defined (STM32L4A6xx) || \
 323:drivers/STM32L4xx_HAL_Driver/Src/stm32l4xx_hal_flash.c ****     defined (STM32L4P5xx) || defined (STM32L4Q5xx) || \
 324:drivers/STM32L4xx_HAL_Driver/Src/stm32l4xx_hal_flash.c ****     defined (STM32L4R5xx) || defined (STM32L4R7xx) || defined (STM32L4R9xx) || defined (STM32L4S5xx
 325:drivers/STM32L4xx_HAL_Driver/Src/stm32l4xx_hal_flash.c ****   CLEAR_BIT(FLASH->CR, FLASH_CR_MER2);
 326:drivers/STM32L4xx_HAL_Driver/Src/stm32l4xx_hal_flash.c **** #endif
 327:drivers/STM32L4xx_HAL_Driver/Src/stm32l4xx_hal_flash.c **** 
 328:drivers/STM32L4xx_HAL_Driver/Src/stm32l4xx_hal_flash.c ****   /* Disable the FSTPG Bit only if it is the last row programmed */
 329:drivers/STM32L4xx_HAL_Driver/Src/stm32l4xx_hal_flash.c ****   if(pFlash.ProcedureOnGoing == FLASH_PROC_PROGRAM_LAST)
 330:drivers/STM32L4xx_HAL_Driver/Src/stm32l4xx_hal_flash.c ****   {
 331:drivers/STM32L4xx_HAL_Driver/Src/stm32l4xx_hal_flash.c ****     CLEAR_BIT(FLASH->CR, FLASH_CR_FSTPG);
 332:drivers/STM32L4xx_HAL_Driver/Src/stm32l4xx_hal_flash.c ****   }
 333:drivers/STM32L4xx_HAL_Driver/Src/stm32l4xx_hal_flash.c **** 
 334:drivers/STM32L4xx_HAL_Driver/Src/stm32l4xx_hal_flash.c ****   /* Check FLASH operation error flags */
 335:drivers/STM32L4xx_HAL_Driver/Src/stm32l4xx_hal_flash.c ****   error = (FLASH->SR & FLASH_FLAG_SR_ERRORS);
 336:drivers/STM32L4xx_HAL_Driver/Src/stm32l4xx_hal_flash.c **** 
 337:drivers/STM32L4xx_HAL_Driver/Src/stm32l4xx_hal_flash.c ****   if (error !=0U)
 338:drivers/STM32L4xx_HAL_Driver/Src/stm32l4xx_hal_flash.c ****   {
 339:drivers/STM32L4xx_HAL_Driver/Src/stm32l4xx_hal_flash.c ****     /*Save the error code*/
 340:drivers/STM32L4xx_HAL_Driver/Src/stm32l4xx_hal_flash.c ****     pFlash.ErrorCode |= error;
 341:drivers/STM32L4xx_HAL_Driver/Src/stm32l4xx_hal_flash.c **** 
 342:drivers/STM32L4xx_HAL_Driver/Src/stm32l4xx_hal_flash.c ****     /* Clear error programming flags */
 343:drivers/STM32L4xx_HAL_Driver/Src/stm32l4xx_hal_flash.c ****     __HAL_FLASH_CLEAR_FLAG(error);
 344:drivers/STM32L4xx_HAL_Driver/Src/stm32l4xx_hal_flash.c **** 
 345:drivers/STM32L4xx_HAL_Driver/Src/stm32l4xx_hal_flash.c ****     /* Flush the caches to be sure of the data consistency */
 346:drivers/STM32L4xx_HAL_Driver/Src/stm32l4xx_hal_flash.c ****     FLASH_FlushCaches() ;
 347:drivers/STM32L4xx_HAL_Driver/Src/stm32l4xx_hal_flash.c **** 
 348:drivers/STM32L4xx_HAL_Driver/Src/stm32l4xx_hal_flash.c ****     /* FLASH error interrupt user callback */
 349:drivers/STM32L4xx_HAL_Driver/Src/stm32l4xx_hal_flash.c ****     procedure = pFlash.ProcedureOnGoing;
 350:drivers/STM32L4xx_HAL_Driver/Src/stm32l4xx_hal_flash.c ****     if(procedure == FLASH_PROC_PAGE_ERASE)
 351:drivers/STM32L4xx_HAL_Driver/Src/stm32l4xx_hal_flash.c ****     {
 352:drivers/STM32L4xx_HAL_Driver/Src/stm32l4xx_hal_flash.c ****        HAL_FLASH_OperationErrorCallback(pFlash.Page);
 353:drivers/STM32L4xx_HAL_Driver/Src/stm32l4xx_hal_flash.c ****     }
 354:drivers/STM32L4xx_HAL_Driver/Src/stm32l4xx_hal_flash.c ****     else if(procedure == FLASH_PROC_MASS_ERASE)
 355:drivers/STM32L4xx_HAL_Driver/Src/stm32l4xx_hal_flash.c ****     {
 356:drivers/STM32L4xx_HAL_Driver/Src/stm32l4xx_hal_flash.c ****         HAL_FLASH_OperationErrorCallback(pFlash.Bank);
 357:drivers/STM32L4xx_HAL_Driver/Src/stm32l4xx_hal_flash.c ****     }
 358:drivers/STM32L4xx_HAL_Driver/Src/stm32l4xx_hal_flash.c ****     else if((procedure == FLASH_PROC_PROGRAM) ||
 359:drivers/STM32L4xx_HAL_Driver/Src/stm32l4xx_hal_flash.c ****             (procedure == FLASH_PROC_PROGRAM_LAST))
 360:drivers/STM32L4xx_HAL_Driver/Src/stm32l4xx_hal_flash.c ****     {
 361:drivers/STM32L4xx_HAL_Driver/Src/stm32l4xx_hal_flash.c ****        HAL_FLASH_OperationErrorCallback(pFlash.Address);
 362:drivers/STM32L4xx_HAL_Driver/Src/stm32l4xx_hal_flash.c ****     }
 363:drivers/STM32L4xx_HAL_Driver/Src/stm32l4xx_hal_flash.c ****     else
 364:drivers/STM32L4xx_HAL_Driver/Src/stm32l4xx_hal_flash.c ****     {
 365:drivers/STM32L4xx_HAL_Driver/Src/stm32l4xx_hal_flash.c ****        HAL_FLASH_OperationErrorCallback(0U);
 366:drivers/STM32L4xx_HAL_Driver/Src/stm32l4xx_hal_flash.c ****     }
 367:drivers/STM32L4xx_HAL_Driver/Src/stm32l4xx_hal_flash.c **** 
 368:drivers/STM32L4xx_HAL_Driver/Src/stm32l4xx_hal_flash.c ****     /*Stop the procedure ongoing*/
 369:drivers/STM32L4xx_HAL_Driver/Src/stm32l4xx_hal_flash.c ****     pFlash.ProcedureOnGoing = FLASH_PROC_NONE;
 370:drivers/STM32L4xx_HAL_Driver/Src/stm32l4xx_hal_flash.c ****   }
 371:drivers/STM32L4xx_HAL_Driver/Src/stm32l4xx_hal_flash.c **** 
 372:drivers/STM32L4xx_HAL_Driver/Src/stm32l4xx_hal_flash.c ****   /* Check FLASH End of Operation flag  */
ARM GAS  C:\Users\mikal\AppData\Local\Temp\cctQ2Bzi.s 			page 8


 373:drivers/STM32L4xx_HAL_Driver/Src/stm32l4xx_hal_flash.c ****   if(__HAL_FLASH_GET_FLAG(FLASH_FLAG_EOP) != 0U)
 374:drivers/STM32L4xx_HAL_Driver/Src/stm32l4xx_hal_flash.c ****   {
 375:drivers/STM32L4xx_HAL_Driver/Src/stm32l4xx_hal_flash.c ****     /* Clear FLASH End of Operation pending bit */
 376:drivers/STM32L4xx_HAL_Driver/Src/stm32l4xx_hal_flash.c ****     __HAL_FLASH_CLEAR_FLAG(FLASH_FLAG_EOP);
 377:drivers/STM32L4xx_HAL_Driver/Src/stm32l4xx_hal_flash.c **** 
 378:drivers/STM32L4xx_HAL_Driver/Src/stm32l4xx_hal_flash.c ****     if(pFlash.ProcedureOnGoing == FLASH_PROC_PAGE_ERASE)
 379:drivers/STM32L4xx_HAL_Driver/Src/stm32l4xx_hal_flash.c ****     {
 380:drivers/STM32L4xx_HAL_Driver/Src/stm32l4xx_hal_flash.c ****       /* Nb of pages to erased can be decreased */
 381:drivers/STM32L4xx_HAL_Driver/Src/stm32l4xx_hal_flash.c ****       pFlash.NbPagesToErase--;
 382:drivers/STM32L4xx_HAL_Driver/Src/stm32l4xx_hal_flash.c **** 
 383:drivers/STM32L4xx_HAL_Driver/Src/stm32l4xx_hal_flash.c ****       /* Check if there are still pages to erase*/
 384:drivers/STM32L4xx_HAL_Driver/Src/stm32l4xx_hal_flash.c ****       if(pFlash.NbPagesToErase != 0U)
 385:drivers/STM32L4xx_HAL_Driver/Src/stm32l4xx_hal_flash.c ****       {
 386:drivers/STM32L4xx_HAL_Driver/Src/stm32l4xx_hal_flash.c ****         /* Indicate user which page has been erased*/
 387:drivers/STM32L4xx_HAL_Driver/Src/stm32l4xx_hal_flash.c ****         HAL_FLASH_EndOfOperationCallback(pFlash.Page);
 388:drivers/STM32L4xx_HAL_Driver/Src/stm32l4xx_hal_flash.c **** 
 389:drivers/STM32L4xx_HAL_Driver/Src/stm32l4xx_hal_flash.c ****         /* Increment page number */
 390:drivers/STM32L4xx_HAL_Driver/Src/stm32l4xx_hal_flash.c ****         pFlash.Page++;
 391:drivers/STM32L4xx_HAL_Driver/Src/stm32l4xx_hal_flash.c ****         tmp_page = pFlash.Page;
 392:drivers/STM32L4xx_HAL_Driver/Src/stm32l4xx_hal_flash.c ****         FLASH_PageErase(tmp_page, pFlash.Bank);
 393:drivers/STM32L4xx_HAL_Driver/Src/stm32l4xx_hal_flash.c ****       }
 394:drivers/STM32L4xx_HAL_Driver/Src/stm32l4xx_hal_flash.c ****       else
 395:drivers/STM32L4xx_HAL_Driver/Src/stm32l4xx_hal_flash.c ****       {
 396:drivers/STM32L4xx_HAL_Driver/Src/stm32l4xx_hal_flash.c ****         /* No more pages to Erase */
 397:drivers/STM32L4xx_HAL_Driver/Src/stm32l4xx_hal_flash.c ****         /* Reset Address and stop Erase pages procedure */
 398:drivers/STM32L4xx_HAL_Driver/Src/stm32l4xx_hal_flash.c ****         pFlash.Page = 0xFFFFFFFFU;
 399:drivers/STM32L4xx_HAL_Driver/Src/stm32l4xx_hal_flash.c ****         pFlash.ProcedureOnGoing = FLASH_PROC_NONE;
 400:drivers/STM32L4xx_HAL_Driver/Src/stm32l4xx_hal_flash.c **** 
 401:drivers/STM32L4xx_HAL_Driver/Src/stm32l4xx_hal_flash.c ****         /* Flush the caches to be sure of the data consistency */
 402:drivers/STM32L4xx_HAL_Driver/Src/stm32l4xx_hal_flash.c ****         FLASH_FlushCaches() ;
 403:drivers/STM32L4xx_HAL_Driver/Src/stm32l4xx_hal_flash.c **** 
 404:drivers/STM32L4xx_HAL_Driver/Src/stm32l4xx_hal_flash.c ****         /* FLASH EOP interrupt user callback */
 405:drivers/STM32L4xx_HAL_Driver/Src/stm32l4xx_hal_flash.c ****         HAL_FLASH_EndOfOperationCallback(pFlash.Page);
 406:drivers/STM32L4xx_HAL_Driver/Src/stm32l4xx_hal_flash.c ****       }
 407:drivers/STM32L4xx_HAL_Driver/Src/stm32l4xx_hal_flash.c ****     }
 408:drivers/STM32L4xx_HAL_Driver/Src/stm32l4xx_hal_flash.c ****     else
 409:drivers/STM32L4xx_HAL_Driver/Src/stm32l4xx_hal_flash.c ****     {
 410:drivers/STM32L4xx_HAL_Driver/Src/stm32l4xx_hal_flash.c ****       /* Flush the caches to be sure of the data consistency */
 411:drivers/STM32L4xx_HAL_Driver/Src/stm32l4xx_hal_flash.c ****       FLASH_FlushCaches() ;
 412:drivers/STM32L4xx_HAL_Driver/Src/stm32l4xx_hal_flash.c **** 
 413:drivers/STM32L4xx_HAL_Driver/Src/stm32l4xx_hal_flash.c ****       procedure = pFlash.ProcedureOnGoing;
 414:drivers/STM32L4xx_HAL_Driver/Src/stm32l4xx_hal_flash.c ****       if(procedure == FLASH_PROC_MASS_ERASE)
 415:drivers/STM32L4xx_HAL_Driver/Src/stm32l4xx_hal_flash.c ****       {
 416:drivers/STM32L4xx_HAL_Driver/Src/stm32l4xx_hal_flash.c ****         /* MassErase ended. Return the selected bank */
 417:drivers/STM32L4xx_HAL_Driver/Src/stm32l4xx_hal_flash.c ****         /* FLASH EOP interrupt user callback */
 418:drivers/STM32L4xx_HAL_Driver/Src/stm32l4xx_hal_flash.c ****         HAL_FLASH_EndOfOperationCallback(pFlash.Bank);
 419:drivers/STM32L4xx_HAL_Driver/Src/stm32l4xx_hal_flash.c ****       }
 420:drivers/STM32L4xx_HAL_Driver/Src/stm32l4xx_hal_flash.c ****       else if((procedure == FLASH_PROC_PROGRAM) ||
 421:drivers/STM32L4xx_HAL_Driver/Src/stm32l4xx_hal_flash.c ****               (procedure == FLASH_PROC_PROGRAM_LAST))
 422:drivers/STM32L4xx_HAL_Driver/Src/stm32l4xx_hal_flash.c ****       {
 423:drivers/STM32L4xx_HAL_Driver/Src/stm32l4xx_hal_flash.c ****         /* Program ended. Return the selected address */
 424:drivers/STM32L4xx_HAL_Driver/Src/stm32l4xx_hal_flash.c ****         /* FLASH EOP interrupt user callback */
 425:drivers/STM32L4xx_HAL_Driver/Src/stm32l4xx_hal_flash.c ****         HAL_FLASH_EndOfOperationCallback(pFlash.Address);
 426:drivers/STM32L4xx_HAL_Driver/Src/stm32l4xx_hal_flash.c ****       }
 427:drivers/STM32L4xx_HAL_Driver/Src/stm32l4xx_hal_flash.c ****       else
 428:drivers/STM32L4xx_HAL_Driver/Src/stm32l4xx_hal_flash.c ****       {
 429:drivers/STM32L4xx_HAL_Driver/Src/stm32l4xx_hal_flash.c ****         /* Nothing to do */
ARM GAS  C:\Users\mikal\AppData\Local\Temp\cctQ2Bzi.s 			page 9


 430:drivers/STM32L4xx_HAL_Driver/Src/stm32l4xx_hal_flash.c ****       }
 431:drivers/STM32L4xx_HAL_Driver/Src/stm32l4xx_hal_flash.c **** 
 432:drivers/STM32L4xx_HAL_Driver/Src/stm32l4xx_hal_flash.c ****       /*Clear the procedure ongoing*/
 433:drivers/STM32L4xx_HAL_Driver/Src/stm32l4xx_hal_flash.c ****       pFlash.ProcedureOnGoing = FLASH_PROC_NONE;
 434:drivers/STM32L4xx_HAL_Driver/Src/stm32l4xx_hal_flash.c ****     }
 435:drivers/STM32L4xx_HAL_Driver/Src/stm32l4xx_hal_flash.c ****   }
 436:drivers/STM32L4xx_HAL_Driver/Src/stm32l4xx_hal_flash.c **** 
 437:drivers/STM32L4xx_HAL_Driver/Src/stm32l4xx_hal_flash.c ****   if(pFlash.ProcedureOnGoing == FLASH_PROC_NONE)
 438:drivers/STM32L4xx_HAL_Driver/Src/stm32l4xx_hal_flash.c ****   {
 439:drivers/STM32L4xx_HAL_Driver/Src/stm32l4xx_hal_flash.c ****     /* Disable End of Operation and Error interrupts */
 440:drivers/STM32L4xx_HAL_Driver/Src/stm32l4xx_hal_flash.c ****     __HAL_FLASH_DISABLE_IT(FLASH_IT_EOP | FLASH_IT_OPERR);
 441:drivers/STM32L4xx_HAL_Driver/Src/stm32l4xx_hal_flash.c **** 
 442:drivers/STM32L4xx_HAL_Driver/Src/stm32l4xx_hal_flash.c ****     /* Process Unlocked */
 443:drivers/STM32L4xx_HAL_Driver/Src/stm32l4xx_hal_flash.c ****     __HAL_UNLOCK(&pFlash);
 444:drivers/STM32L4xx_HAL_Driver/Src/stm32l4xx_hal_flash.c ****   }
 445:drivers/STM32L4xx_HAL_Driver/Src/stm32l4xx_hal_flash.c **** }
 446:drivers/STM32L4xx_HAL_Driver/Src/stm32l4xx_hal_flash.c **** 
 447:drivers/STM32L4xx_HAL_Driver/Src/stm32l4xx_hal_flash.c **** /**
 448:drivers/STM32L4xx_HAL_Driver/Src/stm32l4xx_hal_flash.c ****   * @brief  FLASH end of operation interrupt callback.
 449:drivers/STM32L4xx_HAL_Driver/Src/stm32l4xx_hal_flash.c ****   * @param  ReturnValue The value saved in this parameter depends on the ongoing procedure
 450:drivers/STM32L4xx_HAL_Driver/Src/stm32l4xx_hal_flash.c ****   *                  Mass Erase: Bank number which has been requested to erase
 451:drivers/STM32L4xx_HAL_Driver/Src/stm32l4xx_hal_flash.c ****   *                  Page Erase: Page which has been erased
 452:drivers/STM32L4xx_HAL_Driver/Src/stm32l4xx_hal_flash.c ****   *                    (if 0xFFFFFFFF, it means that all the selected pages have been erased)
 453:drivers/STM32L4xx_HAL_Driver/Src/stm32l4xx_hal_flash.c ****   *                  Program: Address which was selected for data program
 454:drivers/STM32L4xx_HAL_Driver/Src/stm32l4xx_hal_flash.c ****   * @retval None
 455:drivers/STM32L4xx_HAL_Driver/Src/stm32l4xx_hal_flash.c ****   */
 456:drivers/STM32L4xx_HAL_Driver/Src/stm32l4xx_hal_flash.c **** __weak void HAL_FLASH_EndOfOperationCallback(uint32_t ReturnValue)
 457:drivers/STM32L4xx_HAL_Driver/Src/stm32l4xx_hal_flash.c **** {
 458:drivers/STM32L4xx_HAL_Driver/Src/stm32l4xx_hal_flash.c ****   /* Prevent unused argument(s) compilation warning */
 459:drivers/STM32L4xx_HAL_Driver/Src/stm32l4xx_hal_flash.c ****   UNUSED(ReturnValue);
 460:drivers/STM32L4xx_HAL_Driver/Src/stm32l4xx_hal_flash.c **** 
 461:drivers/STM32L4xx_HAL_Driver/Src/stm32l4xx_hal_flash.c ****   /* NOTE : This function should not be modified, when the callback is needed,
 462:drivers/STM32L4xx_HAL_Driver/Src/stm32l4xx_hal_flash.c ****             the HAL_FLASH_EndOfOperationCallback could be implemented in the user file
 463:drivers/STM32L4xx_HAL_Driver/Src/stm32l4xx_hal_flash.c ****    */
 464:drivers/STM32L4xx_HAL_Driver/Src/stm32l4xx_hal_flash.c **** }
 465:drivers/STM32L4xx_HAL_Driver/Src/stm32l4xx_hal_flash.c **** 
 466:drivers/STM32L4xx_HAL_Driver/Src/stm32l4xx_hal_flash.c **** /**
 467:drivers/STM32L4xx_HAL_Driver/Src/stm32l4xx_hal_flash.c ****   * @brief  FLASH operation error interrupt callback.
 468:drivers/STM32L4xx_HAL_Driver/Src/stm32l4xx_hal_flash.c ****   * @param  ReturnValue The value saved in this parameter depends on the ongoing procedure
 469:drivers/STM32L4xx_HAL_Driver/Src/stm32l4xx_hal_flash.c ****   *                 Mass Erase: Bank number which has been requested to erase
 470:drivers/STM32L4xx_HAL_Driver/Src/stm32l4xx_hal_flash.c ****   *                 Page Erase: Page number which returned an error
 471:drivers/STM32L4xx_HAL_Driver/Src/stm32l4xx_hal_flash.c ****   *                 Program: Address which was selected for data program
 472:drivers/STM32L4xx_HAL_Driver/Src/stm32l4xx_hal_flash.c ****   * @retval None
 473:drivers/STM32L4xx_HAL_Driver/Src/stm32l4xx_hal_flash.c ****   */
 474:drivers/STM32L4xx_HAL_Driver/Src/stm32l4xx_hal_flash.c **** __weak void HAL_FLASH_OperationErrorCallback(uint32_t ReturnValue)
 475:drivers/STM32L4xx_HAL_Driver/Src/stm32l4xx_hal_flash.c **** {
 476:drivers/STM32L4xx_HAL_Driver/Src/stm32l4xx_hal_flash.c ****   /* Prevent unused argument(s) compilation warning */
 477:drivers/STM32L4xx_HAL_Driver/Src/stm32l4xx_hal_flash.c ****   UNUSED(ReturnValue);
 478:drivers/STM32L4xx_HAL_Driver/Src/stm32l4xx_hal_flash.c **** 
 479:drivers/STM32L4xx_HAL_Driver/Src/stm32l4xx_hal_flash.c ****   /* NOTE : This function should not be modified, when the callback is needed,
 480:drivers/STM32L4xx_HAL_Driver/Src/stm32l4xx_hal_flash.c ****             the HAL_FLASH_OperationErrorCallback could be implemented in the user file
 481:drivers/STM32L4xx_HAL_Driver/Src/stm32l4xx_hal_flash.c ****    */
 482:drivers/STM32L4xx_HAL_Driver/Src/stm32l4xx_hal_flash.c **** }
 483:drivers/STM32L4xx_HAL_Driver/Src/stm32l4xx_hal_flash.c **** 
 484:drivers/STM32L4xx_HAL_Driver/Src/stm32l4xx_hal_flash.c **** /**
 485:drivers/STM32L4xx_HAL_Driver/Src/stm32l4xx_hal_flash.c ****   * @}
 486:drivers/STM32L4xx_HAL_Driver/Src/stm32l4xx_hal_flash.c ****   */
ARM GAS  C:\Users\mikal\AppData\Local\Temp\cctQ2Bzi.s 			page 10


 487:drivers/STM32L4xx_HAL_Driver/Src/stm32l4xx_hal_flash.c **** 
 488:drivers/STM32L4xx_HAL_Driver/Src/stm32l4xx_hal_flash.c **** /** @defgroup FLASH_Exported_Functions_Group2 Peripheral Control functions
 489:drivers/STM32L4xx_HAL_Driver/Src/stm32l4xx_hal_flash.c ****  *  @brief   Management functions
 490:drivers/STM32L4xx_HAL_Driver/Src/stm32l4xx_hal_flash.c ****  *
 491:drivers/STM32L4xx_HAL_Driver/Src/stm32l4xx_hal_flash.c **** @verbatim
 492:drivers/STM32L4xx_HAL_Driver/Src/stm32l4xx_hal_flash.c ****  ===============================================================================
 493:drivers/STM32L4xx_HAL_Driver/Src/stm32l4xx_hal_flash.c ****                       ##### Peripheral Control functions #####
 494:drivers/STM32L4xx_HAL_Driver/Src/stm32l4xx_hal_flash.c ****  ===============================================================================
 495:drivers/STM32L4xx_HAL_Driver/Src/stm32l4xx_hal_flash.c ****     [..]
 496:drivers/STM32L4xx_HAL_Driver/Src/stm32l4xx_hal_flash.c ****     This subsection provides a set of functions allowing to control the FLASH
 497:drivers/STM32L4xx_HAL_Driver/Src/stm32l4xx_hal_flash.c ****     memory operations.
 498:drivers/STM32L4xx_HAL_Driver/Src/stm32l4xx_hal_flash.c **** 
 499:drivers/STM32L4xx_HAL_Driver/Src/stm32l4xx_hal_flash.c **** @endverbatim
 500:drivers/STM32L4xx_HAL_Driver/Src/stm32l4xx_hal_flash.c ****   * @{
 501:drivers/STM32L4xx_HAL_Driver/Src/stm32l4xx_hal_flash.c ****   */
 502:drivers/STM32L4xx_HAL_Driver/Src/stm32l4xx_hal_flash.c **** 
 503:drivers/STM32L4xx_HAL_Driver/Src/stm32l4xx_hal_flash.c **** /**
 504:drivers/STM32L4xx_HAL_Driver/Src/stm32l4xx_hal_flash.c ****   * @brief  Unlock the FLASH control register access.
 505:drivers/STM32L4xx_HAL_Driver/Src/stm32l4xx_hal_flash.c ****   * @retval HAL Status
 506:drivers/STM32L4xx_HAL_Driver/Src/stm32l4xx_hal_flash.c ****   */
 507:drivers/STM32L4xx_HAL_Driver/Src/stm32l4xx_hal_flash.c **** HAL_StatusTypeDef HAL_FLASH_Unlock(void)
 508:drivers/STM32L4xx_HAL_Driver/Src/stm32l4xx_hal_flash.c **** {
 509:drivers/STM32L4xx_HAL_Driver/Src/stm32l4xx_hal_flash.c ****   HAL_StatusTypeDef status = HAL_OK;
 510:drivers/STM32L4xx_HAL_Driver/Src/stm32l4xx_hal_flash.c **** 
 511:drivers/STM32L4xx_HAL_Driver/Src/stm32l4xx_hal_flash.c ****   if(READ_BIT(FLASH->CR, FLASH_CR_LOCK) != 0U)
 512:drivers/STM32L4xx_HAL_Driver/Src/stm32l4xx_hal_flash.c ****   {
 513:drivers/STM32L4xx_HAL_Driver/Src/stm32l4xx_hal_flash.c ****     /* Authorize the FLASH Registers access */
 514:drivers/STM32L4xx_HAL_Driver/Src/stm32l4xx_hal_flash.c ****     WRITE_REG(FLASH->KEYR, FLASH_KEY1);
 515:drivers/STM32L4xx_HAL_Driver/Src/stm32l4xx_hal_flash.c ****     WRITE_REG(FLASH->KEYR, FLASH_KEY2);
 516:drivers/STM32L4xx_HAL_Driver/Src/stm32l4xx_hal_flash.c **** 
 517:drivers/STM32L4xx_HAL_Driver/Src/stm32l4xx_hal_flash.c ****     /* Verify Flash is unlocked */
 518:drivers/STM32L4xx_HAL_Driver/Src/stm32l4xx_hal_flash.c ****     if(READ_BIT(FLASH->CR, FLASH_CR_LOCK) != 0U)
 519:drivers/STM32L4xx_HAL_Driver/Src/stm32l4xx_hal_flash.c ****     {
 520:drivers/STM32L4xx_HAL_Driver/Src/stm32l4xx_hal_flash.c ****       status = HAL_ERROR;
 521:drivers/STM32L4xx_HAL_Driver/Src/stm32l4xx_hal_flash.c ****     }
 522:drivers/STM32L4xx_HAL_Driver/Src/stm32l4xx_hal_flash.c ****   }
 523:drivers/STM32L4xx_HAL_Driver/Src/stm32l4xx_hal_flash.c **** 
 524:drivers/STM32L4xx_HAL_Driver/Src/stm32l4xx_hal_flash.c ****   return status;
 525:drivers/STM32L4xx_HAL_Driver/Src/stm32l4xx_hal_flash.c **** }
 526:drivers/STM32L4xx_HAL_Driver/Src/stm32l4xx_hal_flash.c **** 
 527:drivers/STM32L4xx_HAL_Driver/Src/stm32l4xx_hal_flash.c **** /**
 528:drivers/STM32L4xx_HAL_Driver/Src/stm32l4xx_hal_flash.c ****   * @brief  Lock the FLASH control register access.
 529:drivers/STM32L4xx_HAL_Driver/Src/stm32l4xx_hal_flash.c ****   * @retval HAL Status
 530:drivers/STM32L4xx_HAL_Driver/Src/stm32l4xx_hal_flash.c ****   */
 531:drivers/STM32L4xx_HAL_Driver/Src/stm32l4xx_hal_flash.c **** HAL_StatusTypeDef HAL_FLASH_Lock(void)
 532:drivers/STM32L4xx_HAL_Driver/Src/stm32l4xx_hal_flash.c **** {
 533:drivers/STM32L4xx_HAL_Driver/Src/stm32l4xx_hal_flash.c ****   /* Set the LOCK Bit to lock the FLASH Registers access */
 534:drivers/STM32L4xx_HAL_Driver/Src/stm32l4xx_hal_flash.c ****   SET_BIT(FLASH->CR, FLASH_CR_LOCK);
 535:drivers/STM32L4xx_HAL_Driver/Src/stm32l4xx_hal_flash.c **** 
 536:drivers/STM32L4xx_HAL_Driver/Src/stm32l4xx_hal_flash.c ****   return HAL_OK;
 537:drivers/STM32L4xx_HAL_Driver/Src/stm32l4xx_hal_flash.c **** }
 538:drivers/STM32L4xx_HAL_Driver/Src/stm32l4xx_hal_flash.c **** 
 539:drivers/STM32L4xx_HAL_Driver/Src/stm32l4xx_hal_flash.c **** /**
 540:drivers/STM32L4xx_HAL_Driver/Src/stm32l4xx_hal_flash.c ****   * @brief  Unlock the FLASH Option Bytes Registers access.
 541:drivers/STM32L4xx_HAL_Driver/Src/stm32l4xx_hal_flash.c ****   * @retval HAL Status
 542:drivers/STM32L4xx_HAL_Driver/Src/stm32l4xx_hal_flash.c ****   */
 543:drivers/STM32L4xx_HAL_Driver/Src/stm32l4xx_hal_flash.c **** HAL_StatusTypeDef HAL_FLASH_OB_Unlock(void)
ARM GAS  C:\Users\mikal\AppData\Local\Temp\cctQ2Bzi.s 			page 11


 544:drivers/STM32L4xx_HAL_Driver/Src/stm32l4xx_hal_flash.c **** {
 545:drivers/STM32L4xx_HAL_Driver/Src/stm32l4xx_hal_flash.c ****   if(READ_BIT(FLASH->CR, FLASH_CR_OPTLOCK) != 0U)
 546:drivers/STM32L4xx_HAL_Driver/Src/stm32l4xx_hal_flash.c ****   {
 547:drivers/STM32L4xx_HAL_Driver/Src/stm32l4xx_hal_flash.c ****     /* Authorizes the Option Byte register programming */
 548:drivers/STM32L4xx_HAL_Driver/Src/stm32l4xx_hal_flash.c ****     WRITE_REG(FLASH->OPTKEYR, FLASH_OPTKEY1);
 549:drivers/STM32L4xx_HAL_Driver/Src/stm32l4xx_hal_flash.c ****     WRITE_REG(FLASH->OPTKEYR, FLASH_OPTKEY2);
 550:drivers/STM32L4xx_HAL_Driver/Src/stm32l4xx_hal_flash.c ****   }
 551:drivers/STM32L4xx_HAL_Driver/Src/stm32l4xx_hal_flash.c ****   else
 552:drivers/STM32L4xx_HAL_Driver/Src/stm32l4xx_hal_flash.c ****   {
 553:drivers/STM32L4xx_HAL_Driver/Src/stm32l4xx_hal_flash.c ****     return HAL_ERROR;
 554:drivers/STM32L4xx_HAL_Driver/Src/stm32l4xx_hal_flash.c ****   }
 555:drivers/STM32L4xx_HAL_Driver/Src/stm32l4xx_hal_flash.c **** 
 556:drivers/STM32L4xx_HAL_Driver/Src/stm32l4xx_hal_flash.c ****   return HAL_OK;
 557:drivers/STM32L4xx_HAL_Driver/Src/stm32l4xx_hal_flash.c **** }
 558:drivers/STM32L4xx_HAL_Driver/Src/stm32l4xx_hal_flash.c **** 
 559:drivers/STM32L4xx_HAL_Driver/Src/stm32l4xx_hal_flash.c **** /**
 560:drivers/STM32L4xx_HAL_Driver/Src/stm32l4xx_hal_flash.c ****   * @brief  Lock the FLASH Option Bytes Registers access.
 561:drivers/STM32L4xx_HAL_Driver/Src/stm32l4xx_hal_flash.c ****   * @retval HAL Status
 562:drivers/STM32L4xx_HAL_Driver/Src/stm32l4xx_hal_flash.c ****   */
 563:drivers/STM32L4xx_HAL_Driver/Src/stm32l4xx_hal_flash.c **** HAL_StatusTypeDef HAL_FLASH_OB_Lock(void)
 564:drivers/STM32L4xx_HAL_Driver/Src/stm32l4xx_hal_flash.c **** {
 565:drivers/STM32L4xx_HAL_Driver/Src/stm32l4xx_hal_flash.c ****   /* Set the OPTLOCK Bit to lock the FLASH Option Byte Registers access */
 566:drivers/STM32L4xx_HAL_Driver/Src/stm32l4xx_hal_flash.c ****   SET_BIT(FLASH->CR, FLASH_CR_OPTLOCK);
 567:drivers/STM32L4xx_HAL_Driver/Src/stm32l4xx_hal_flash.c **** 
 568:drivers/STM32L4xx_HAL_Driver/Src/stm32l4xx_hal_flash.c ****   return HAL_OK;
 569:drivers/STM32L4xx_HAL_Driver/Src/stm32l4xx_hal_flash.c **** }
 570:drivers/STM32L4xx_HAL_Driver/Src/stm32l4xx_hal_flash.c **** 
 571:drivers/STM32L4xx_HAL_Driver/Src/stm32l4xx_hal_flash.c **** /**
 572:drivers/STM32L4xx_HAL_Driver/Src/stm32l4xx_hal_flash.c ****   * @brief  Launch the option byte loading.
 573:drivers/STM32L4xx_HAL_Driver/Src/stm32l4xx_hal_flash.c ****   * @retval HAL Status
 574:drivers/STM32L4xx_HAL_Driver/Src/stm32l4xx_hal_flash.c ****   */
 575:drivers/STM32L4xx_HAL_Driver/Src/stm32l4xx_hal_flash.c **** HAL_StatusTypeDef HAL_FLASH_OB_Launch(void)
 576:drivers/STM32L4xx_HAL_Driver/Src/stm32l4xx_hal_flash.c **** {
 577:drivers/STM32L4xx_HAL_Driver/Src/stm32l4xx_hal_flash.c ****   /* Set the bit to force the option byte reloading */
 578:drivers/STM32L4xx_HAL_Driver/Src/stm32l4xx_hal_flash.c ****   SET_BIT(FLASH->CR, FLASH_CR_OBL_LAUNCH);
 579:drivers/STM32L4xx_HAL_Driver/Src/stm32l4xx_hal_flash.c **** 
 580:drivers/STM32L4xx_HAL_Driver/Src/stm32l4xx_hal_flash.c ****   /* Wait for last operation to be completed */
 581:drivers/STM32L4xx_HAL_Driver/Src/stm32l4xx_hal_flash.c ****   return(FLASH_WaitForLastOperation((uint32_t)FLASH_TIMEOUT_VALUE));
 582:drivers/STM32L4xx_HAL_Driver/Src/stm32l4xx_hal_flash.c **** }
 583:drivers/STM32L4xx_HAL_Driver/Src/stm32l4xx_hal_flash.c **** 
 584:drivers/STM32L4xx_HAL_Driver/Src/stm32l4xx_hal_flash.c **** /**
 585:drivers/STM32L4xx_HAL_Driver/Src/stm32l4xx_hal_flash.c ****   * @}
 586:drivers/STM32L4xx_HAL_Driver/Src/stm32l4xx_hal_flash.c ****   */
 587:drivers/STM32L4xx_HAL_Driver/Src/stm32l4xx_hal_flash.c **** 
 588:drivers/STM32L4xx_HAL_Driver/Src/stm32l4xx_hal_flash.c **** /** @defgroup FLASH_Exported_Functions_Group3 Peripheral State and Errors functions
 589:drivers/STM32L4xx_HAL_Driver/Src/stm32l4xx_hal_flash.c ****  *  @brief   Peripheral Errors functions
 590:drivers/STM32L4xx_HAL_Driver/Src/stm32l4xx_hal_flash.c ****  *
 591:drivers/STM32L4xx_HAL_Driver/Src/stm32l4xx_hal_flash.c **** @verbatim
 592:drivers/STM32L4xx_HAL_Driver/Src/stm32l4xx_hal_flash.c ****  ===============================================================================
 593:drivers/STM32L4xx_HAL_Driver/Src/stm32l4xx_hal_flash.c ****                 ##### Peripheral Errors functions #####
 594:drivers/STM32L4xx_HAL_Driver/Src/stm32l4xx_hal_flash.c ****  ===============================================================================
 595:drivers/STM32L4xx_HAL_Driver/Src/stm32l4xx_hal_flash.c ****     [..]
 596:drivers/STM32L4xx_HAL_Driver/Src/stm32l4xx_hal_flash.c ****     This subsection permits to get in run-time Errors of the FLASH peripheral.
 597:drivers/STM32L4xx_HAL_Driver/Src/stm32l4xx_hal_flash.c **** 
 598:drivers/STM32L4xx_HAL_Driver/Src/stm32l4xx_hal_flash.c **** @endverbatim
 599:drivers/STM32L4xx_HAL_Driver/Src/stm32l4xx_hal_flash.c ****   * @{
 600:drivers/STM32L4xx_HAL_Driver/Src/stm32l4xx_hal_flash.c ****   */
ARM GAS  C:\Users\mikal\AppData\Local\Temp\cctQ2Bzi.s 			page 12


 601:drivers/STM32L4xx_HAL_Driver/Src/stm32l4xx_hal_flash.c **** 
 602:drivers/STM32L4xx_HAL_Driver/Src/stm32l4xx_hal_flash.c **** /**
 603:drivers/STM32L4xx_HAL_Driver/Src/stm32l4xx_hal_flash.c ****   * @brief  Get the specific FLASH error flag.
 604:drivers/STM32L4xx_HAL_Driver/Src/stm32l4xx_hal_flash.c ****   * @retval FLASH_ErrorCode: The returned value can be:
 605:drivers/STM32L4xx_HAL_Driver/Src/stm32l4xx_hal_flash.c ****   *            @arg HAL_FLASH_ERROR_RD: FLASH Read Protection error flag (PCROP)
 606:drivers/STM32L4xx_HAL_Driver/Src/stm32l4xx_hal_flash.c ****   *            @arg HAL_FLASH_ERROR_PGS: FLASH Programming Sequence error flag
 607:drivers/STM32L4xx_HAL_Driver/Src/stm32l4xx_hal_flash.c ****   *            @arg HAL_FLASH_ERROR_PGP: FLASH Programming Parallelism error flag
 608:drivers/STM32L4xx_HAL_Driver/Src/stm32l4xx_hal_flash.c ****   *            @arg HAL_FLASH_ERROR_PGA: FLASH Programming Alignment error flag
 609:drivers/STM32L4xx_HAL_Driver/Src/stm32l4xx_hal_flash.c ****   *            @arg HAL_FLASH_ERROR_WRP: FLASH Write protected error flag
 610:drivers/STM32L4xx_HAL_Driver/Src/stm32l4xx_hal_flash.c ****   *            @arg HAL_FLASH_ERROR_OPERATION: FLASH operation Error flag
 611:drivers/STM32L4xx_HAL_Driver/Src/stm32l4xx_hal_flash.c ****   *            @arg HAL_FLASH_ERROR_NONE: No error set
 612:drivers/STM32L4xx_HAL_Driver/Src/stm32l4xx_hal_flash.c ****   *            @arg HAL_FLASH_ERROR_OP: FLASH Operation error
 613:drivers/STM32L4xx_HAL_Driver/Src/stm32l4xx_hal_flash.c ****   *            @arg HAL_FLASH_ERROR_PROG: FLASH Programming error
 614:drivers/STM32L4xx_HAL_Driver/Src/stm32l4xx_hal_flash.c ****   *            @arg HAL_FLASH_ERROR_WRP: FLASH Write protection error
 615:drivers/STM32L4xx_HAL_Driver/Src/stm32l4xx_hal_flash.c ****   *            @arg HAL_FLASH_ERROR_PGA: FLASH Programming alignment error
 616:drivers/STM32L4xx_HAL_Driver/Src/stm32l4xx_hal_flash.c ****   *            @arg HAL_FLASH_ERROR_SIZ: FLASH Size error
 617:drivers/STM32L4xx_HAL_Driver/Src/stm32l4xx_hal_flash.c ****   *            @arg HAL_FLASH_ERROR_PGS: FLASH Programming sequence error
 618:drivers/STM32L4xx_HAL_Driver/Src/stm32l4xx_hal_flash.c ****   *            @arg HAL_FLASH_ERROR_MIS: FLASH Fast programming data miss error
 619:drivers/STM32L4xx_HAL_Driver/Src/stm32l4xx_hal_flash.c ****   *            @arg HAL_FLASH_ERROR_FAST: FLASH Fast programming error
 620:drivers/STM32L4xx_HAL_Driver/Src/stm32l4xx_hal_flash.c ****   *            @arg HAL_FLASH_ERROR_RD: FLASH PCROP read error
 621:drivers/STM32L4xx_HAL_Driver/Src/stm32l4xx_hal_flash.c ****   *            @arg HAL_FLASH_ERROR_OPTV: FLASH Option validity error
 622:drivers/STM32L4xx_HAL_Driver/Src/stm32l4xx_hal_flash.c ****   *            @arg FLASH_FLAG_PEMPTY : FLASH Boot from not programmed flash (apply only for STM32L
 623:drivers/STM32L4xx_HAL_Driver/Src/stm32l4xx_hal_flash.c ****   */
 624:drivers/STM32L4xx_HAL_Driver/Src/stm32l4xx_hal_flash.c **** uint32_t HAL_FLASH_GetError(void)
 625:drivers/STM32L4xx_HAL_Driver/Src/stm32l4xx_hal_flash.c **** {
 626:drivers/STM32L4xx_HAL_Driver/Src/stm32l4xx_hal_flash.c ****    return pFlash.ErrorCode;
 627:drivers/STM32L4xx_HAL_Driver/Src/stm32l4xx_hal_flash.c **** }
 628:drivers/STM32L4xx_HAL_Driver/Src/stm32l4xx_hal_flash.c **** 
 629:drivers/STM32L4xx_HAL_Driver/Src/stm32l4xx_hal_flash.c **** /**
 630:drivers/STM32L4xx_HAL_Driver/Src/stm32l4xx_hal_flash.c ****   * @}
 631:drivers/STM32L4xx_HAL_Driver/Src/stm32l4xx_hal_flash.c ****   */
 632:drivers/STM32L4xx_HAL_Driver/Src/stm32l4xx_hal_flash.c **** 
 633:drivers/STM32L4xx_HAL_Driver/Src/stm32l4xx_hal_flash.c **** /**
 634:drivers/STM32L4xx_HAL_Driver/Src/stm32l4xx_hal_flash.c ****   * @}
 635:drivers/STM32L4xx_HAL_Driver/Src/stm32l4xx_hal_flash.c ****   */
 636:drivers/STM32L4xx_HAL_Driver/Src/stm32l4xx_hal_flash.c **** 
 637:drivers/STM32L4xx_HAL_Driver/Src/stm32l4xx_hal_flash.c **** /* Private functions ---------------------------------------------------------*/
 638:drivers/STM32L4xx_HAL_Driver/Src/stm32l4xx_hal_flash.c **** 
 639:drivers/STM32L4xx_HAL_Driver/Src/stm32l4xx_hal_flash.c **** /** @addtogroup FLASH_Private_Functions
 640:drivers/STM32L4xx_HAL_Driver/Src/stm32l4xx_hal_flash.c ****   * @{
 641:drivers/STM32L4xx_HAL_Driver/Src/stm32l4xx_hal_flash.c ****   */
 642:drivers/STM32L4xx_HAL_Driver/Src/stm32l4xx_hal_flash.c **** 
 643:drivers/STM32L4xx_HAL_Driver/Src/stm32l4xx_hal_flash.c **** /**
 644:drivers/STM32L4xx_HAL_Driver/Src/stm32l4xx_hal_flash.c ****   * @brief  Wait for a FLASH operation to complete.
 645:drivers/STM32L4xx_HAL_Driver/Src/stm32l4xx_hal_flash.c ****   * @param  Timeout maximum flash operation timeout
 646:drivers/STM32L4xx_HAL_Driver/Src/stm32l4xx_hal_flash.c ****   * @retval HAL_StatusTypeDef HAL Status
 647:drivers/STM32L4xx_HAL_Driver/Src/stm32l4xx_hal_flash.c ****   */
 648:drivers/STM32L4xx_HAL_Driver/Src/stm32l4xx_hal_flash.c **** HAL_StatusTypeDef FLASH_WaitForLastOperation(uint32_t Timeout)
 649:drivers/STM32L4xx_HAL_Driver/Src/stm32l4xx_hal_flash.c **** {
 650:drivers/STM32L4xx_HAL_Driver/Src/stm32l4xx_hal_flash.c ****   /* Wait for the FLASH operation to complete by polling on BUSY flag to be reset.
 651:drivers/STM32L4xx_HAL_Driver/Src/stm32l4xx_hal_flash.c ****      Even if the FLASH operation fails, the BUSY flag will be reset and an error
 652:drivers/STM32L4xx_HAL_Driver/Src/stm32l4xx_hal_flash.c ****      flag will be set */
 653:drivers/STM32L4xx_HAL_Driver/Src/stm32l4xx_hal_flash.c **** 
 654:drivers/STM32L4xx_HAL_Driver/Src/stm32l4xx_hal_flash.c ****   uint32_t tickstart = HAL_GetTick();
 655:drivers/STM32L4xx_HAL_Driver/Src/stm32l4xx_hal_flash.c ****   uint32_t error;
 656:drivers/STM32L4xx_HAL_Driver/Src/stm32l4xx_hal_flash.c **** 
 657:drivers/STM32L4xx_HAL_Driver/Src/stm32l4xx_hal_flash.c ****   while(__HAL_FLASH_GET_FLAG(FLASH_FLAG_BSY))
ARM GAS  C:\Users\mikal\AppData\Local\Temp\cctQ2Bzi.s 			page 13


 658:drivers/STM32L4xx_HAL_Driver/Src/stm32l4xx_hal_flash.c ****   {
 659:drivers/STM32L4xx_HAL_Driver/Src/stm32l4xx_hal_flash.c ****     if(Timeout != HAL_MAX_DELAY)
 660:drivers/STM32L4xx_HAL_Driver/Src/stm32l4xx_hal_flash.c ****     {
 661:drivers/STM32L4xx_HAL_Driver/Src/stm32l4xx_hal_flash.c ****       if((HAL_GetTick() - tickstart) >= Timeout)
 662:drivers/STM32L4xx_HAL_Driver/Src/stm32l4xx_hal_flash.c ****       {
 663:drivers/STM32L4xx_HAL_Driver/Src/stm32l4xx_hal_flash.c ****         return HAL_TIMEOUT;
 664:drivers/STM32L4xx_HAL_Driver/Src/stm32l4xx_hal_flash.c ****       }
 665:drivers/STM32L4xx_HAL_Driver/Src/stm32l4xx_hal_flash.c ****     }
 666:drivers/STM32L4xx_HAL_Driver/Src/stm32l4xx_hal_flash.c ****   }
 667:drivers/STM32L4xx_HAL_Driver/Src/stm32l4xx_hal_flash.c **** 
 668:drivers/STM32L4xx_HAL_Driver/Src/stm32l4xx_hal_flash.c ****   error = (FLASH->SR & FLASH_FLAG_SR_ERRORS);
 669:drivers/STM32L4xx_HAL_Driver/Src/stm32l4xx_hal_flash.c **** 
 670:drivers/STM32L4xx_HAL_Driver/Src/stm32l4xx_hal_flash.c ****   if(error != 0u)
 671:drivers/STM32L4xx_HAL_Driver/Src/stm32l4xx_hal_flash.c ****   {
 672:drivers/STM32L4xx_HAL_Driver/Src/stm32l4xx_hal_flash.c ****     /*Save the error code*/
 673:drivers/STM32L4xx_HAL_Driver/Src/stm32l4xx_hal_flash.c ****     pFlash.ErrorCode |= error;
 674:drivers/STM32L4xx_HAL_Driver/Src/stm32l4xx_hal_flash.c **** 
 675:drivers/STM32L4xx_HAL_Driver/Src/stm32l4xx_hal_flash.c ****     /* Clear error programming flags */
 676:drivers/STM32L4xx_HAL_Driver/Src/stm32l4xx_hal_flash.c ****     __HAL_FLASH_CLEAR_FLAG(error);
 677:drivers/STM32L4xx_HAL_Driver/Src/stm32l4xx_hal_flash.c **** 
 678:drivers/STM32L4xx_HAL_Driver/Src/stm32l4xx_hal_flash.c ****     return HAL_ERROR;
 679:drivers/STM32L4xx_HAL_Driver/Src/stm32l4xx_hal_flash.c ****   }
 680:drivers/STM32L4xx_HAL_Driver/Src/stm32l4xx_hal_flash.c **** 
 681:drivers/STM32L4xx_HAL_Driver/Src/stm32l4xx_hal_flash.c ****   /* Check FLASH End of Operation flag  */
 682:drivers/STM32L4xx_HAL_Driver/Src/stm32l4xx_hal_flash.c ****   if (__HAL_FLASH_GET_FLAG(FLASH_FLAG_EOP))
 683:drivers/STM32L4xx_HAL_Driver/Src/stm32l4xx_hal_flash.c ****   {
 684:drivers/STM32L4xx_HAL_Driver/Src/stm32l4xx_hal_flash.c ****     /* Clear FLASH End of Operation pending bit */
 685:drivers/STM32L4xx_HAL_Driver/Src/stm32l4xx_hal_flash.c ****     __HAL_FLASH_CLEAR_FLAG(FLASH_FLAG_EOP);
 686:drivers/STM32L4xx_HAL_Driver/Src/stm32l4xx_hal_flash.c ****   }
 687:drivers/STM32L4xx_HAL_Driver/Src/stm32l4xx_hal_flash.c **** 
 688:drivers/STM32L4xx_HAL_Driver/Src/stm32l4xx_hal_flash.c ****   /* If there is an error flag set */
 689:drivers/STM32L4xx_HAL_Driver/Src/stm32l4xx_hal_flash.c ****   return HAL_OK;
 690:drivers/STM32L4xx_HAL_Driver/Src/stm32l4xx_hal_flash.c **** }
 691:drivers/STM32L4xx_HAL_Driver/Src/stm32l4xx_hal_flash.c **** 
 692:drivers/STM32L4xx_HAL_Driver/Src/stm32l4xx_hal_flash.c **** /**
 693:drivers/STM32L4xx_HAL_Driver/Src/stm32l4xx_hal_flash.c ****   * @brief  Program double-word (64-bit) at a specified address.
 694:drivers/STM32L4xx_HAL_Driver/Src/stm32l4xx_hal_flash.c ****   * @param  Address specifies the address to be programmed.
 695:drivers/STM32L4xx_HAL_Driver/Src/stm32l4xx_hal_flash.c ****   * @param  Data specifies the data to be programmed.
 696:drivers/STM32L4xx_HAL_Driver/Src/stm32l4xx_hal_flash.c ****   * @retval None
 697:drivers/STM32L4xx_HAL_Driver/Src/stm32l4xx_hal_flash.c ****   */
 698:drivers/STM32L4xx_HAL_Driver/Src/stm32l4xx_hal_flash.c **** static void FLASH_Program_DoubleWord(uint32_t Address, uint64_t Data)
 699:drivers/STM32L4xx_HAL_Driver/Src/stm32l4xx_hal_flash.c **** {
  29              		.loc 1 699 1 view -0
  30              		.cfi_startproc
  31              		@ args = 0, pretend = 0, frame = 0
  32              		@ frame_needed = 0, uses_anonymous_args = 0
  33              		@ link register save eliminated.
  34              		.loc 1 699 1 is_stmt 0 view .LVU1
  35 0000 10B4     		push	{r4}
  36              	.LCFI0:
  37              		.cfi_def_cfa_offset 4
  38              		.cfi_offset 4, -4
 700:drivers/STM32L4xx_HAL_Driver/Src/stm32l4xx_hal_flash.c ****   /* Check the parameters */
 701:drivers/STM32L4xx_HAL_Driver/Src/stm32l4xx_hal_flash.c ****   assert_param(IS_FLASH_PROGRAM_ADDRESS(Address));
  39              		.loc 1 701 3 is_stmt 1 view .LVU2
 702:drivers/STM32L4xx_HAL_Driver/Src/stm32l4xx_hal_flash.c **** 
 703:drivers/STM32L4xx_HAL_Driver/Src/stm32l4xx_hal_flash.c ****   /* Set PG bit */
ARM GAS  C:\Users\mikal\AppData\Local\Temp\cctQ2Bzi.s 			page 14


 704:drivers/STM32L4xx_HAL_Driver/Src/stm32l4xx_hal_flash.c ****   SET_BIT(FLASH->CR, FLASH_CR_PG);
  40              		.loc 1 704 3 view .LVU3
  41 0002 064C     		ldr	r4, .L3
  42 0004 6169     		ldr	r1, [r4, #20]
  43 0006 41F00101 		orr	r1, r1, #1
  44 000a 6161     		str	r1, [r4, #20]
 705:drivers/STM32L4xx_HAL_Driver/Src/stm32l4xx_hal_flash.c **** 
 706:drivers/STM32L4xx_HAL_Driver/Src/stm32l4xx_hal_flash.c ****   /* Program first word */
 707:drivers/STM32L4xx_HAL_Driver/Src/stm32l4xx_hal_flash.c ****   *(__IO uint32_t*)Address = (uint32_t)Data;
  45              		.loc 1 707 3 view .LVU4
  46              		.loc 1 707 28 is_stmt 0 view .LVU5
  47 000c 0260     		str	r2, [r0]
 708:drivers/STM32L4xx_HAL_Driver/Src/stm32l4xx_hal_flash.c **** 
 709:drivers/STM32L4xx_HAL_Driver/Src/stm32l4xx_hal_flash.c ****   /* Barrier to ensure programming is performed in 2 steps, in right order
 710:drivers/STM32L4xx_HAL_Driver/Src/stm32l4xx_hal_flash.c ****     (independently of compiler optimization behavior) */
 711:drivers/STM32L4xx_HAL_Driver/Src/stm32l4xx_hal_flash.c ****   __ISB();
  48              		.loc 1 711 3 is_stmt 1 view .LVU6
  49              	.LBB10:
  50              	.LBI10:
  51              		.file 2 "drivers/CMSIS/Include/cmsis_gcc.h"
   1:drivers/CMSIS/Include/cmsis_gcc.h **** /**************************************************************************//**
   2:drivers/CMSIS/Include/cmsis_gcc.h ****  * @file     cmsis_gcc.h
   3:drivers/CMSIS/Include/cmsis_gcc.h ****  * @brief    CMSIS compiler GCC header file
   4:drivers/CMSIS/Include/cmsis_gcc.h ****  * @version  V5.2.0
   5:drivers/CMSIS/Include/cmsis_gcc.h ****  * @date     08. May 2019
   6:drivers/CMSIS/Include/cmsis_gcc.h ****  ******************************************************************************/
   7:drivers/CMSIS/Include/cmsis_gcc.h **** /*
   8:drivers/CMSIS/Include/cmsis_gcc.h ****  * Copyright (c) 2009-2019 Arm Limited. All rights reserved.
   9:drivers/CMSIS/Include/cmsis_gcc.h ****  *
  10:drivers/CMSIS/Include/cmsis_gcc.h ****  * SPDX-License-Identifier: Apache-2.0
  11:drivers/CMSIS/Include/cmsis_gcc.h ****  *
  12:drivers/CMSIS/Include/cmsis_gcc.h ****  * Licensed under the Apache License, Version 2.0 (the License); you may
  13:drivers/CMSIS/Include/cmsis_gcc.h ****  * not use this file except in compliance with the License.
  14:drivers/CMSIS/Include/cmsis_gcc.h ****  * You may obtain a copy of the License at
  15:drivers/CMSIS/Include/cmsis_gcc.h ****  *
  16:drivers/CMSIS/Include/cmsis_gcc.h ****  * www.apache.org/licenses/LICENSE-2.0
  17:drivers/CMSIS/Include/cmsis_gcc.h ****  *
  18:drivers/CMSIS/Include/cmsis_gcc.h ****  * Unless required by applicable law or agreed to in writing, software
  19:drivers/CMSIS/Include/cmsis_gcc.h ****  * distributed under the License is distributed on an AS IS BASIS, WITHOUT
  20:drivers/CMSIS/Include/cmsis_gcc.h ****  * WARRANTIES OR CONDITIONS OF ANY KIND, either express or implied.
  21:drivers/CMSIS/Include/cmsis_gcc.h ****  * See the License for the specific language governing permissions and
  22:drivers/CMSIS/Include/cmsis_gcc.h ****  * limitations under the License.
  23:drivers/CMSIS/Include/cmsis_gcc.h ****  */
  24:drivers/CMSIS/Include/cmsis_gcc.h **** 
  25:drivers/CMSIS/Include/cmsis_gcc.h **** #ifndef __CMSIS_GCC_H
  26:drivers/CMSIS/Include/cmsis_gcc.h **** #define __CMSIS_GCC_H
  27:drivers/CMSIS/Include/cmsis_gcc.h **** 
  28:drivers/CMSIS/Include/cmsis_gcc.h **** /* ignore some GCC warnings */
  29:drivers/CMSIS/Include/cmsis_gcc.h **** #pragma GCC diagnostic push
  30:drivers/CMSIS/Include/cmsis_gcc.h **** #pragma GCC diagnostic ignored "-Wsign-conversion"
  31:drivers/CMSIS/Include/cmsis_gcc.h **** #pragma GCC diagnostic ignored "-Wconversion"
  32:drivers/CMSIS/Include/cmsis_gcc.h **** #pragma GCC diagnostic ignored "-Wunused-parameter"
  33:drivers/CMSIS/Include/cmsis_gcc.h **** 
  34:drivers/CMSIS/Include/cmsis_gcc.h **** /* Fallback for __has_builtin */
  35:drivers/CMSIS/Include/cmsis_gcc.h **** #ifndef __has_builtin
  36:drivers/CMSIS/Include/cmsis_gcc.h ****   #define __has_builtin(x) (0)
  37:drivers/CMSIS/Include/cmsis_gcc.h **** #endif
ARM GAS  C:\Users\mikal\AppData\Local\Temp\cctQ2Bzi.s 			page 15


  38:drivers/CMSIS/Include/cmsis_gcc.h **** 
  39:drivers/CMSIS/Include/cmsis_gcc.h **** /* CMSIS compiler specific defines */
  40:drivers/CMSIS/Include/cmsis_gcc.h **** #ifndef   __ASM
  41:drivers/CMSIS/Include/cmsis_gcc.h ****   #define __ASM                                  __asm
  42:drivers/CMSIS/Include/cmsis_gcc.h **** #endif
  43:drivers/CMSIS/Include/cmsis_gcc.h **** #ifndef   __INLINE
  44:drivers/CMSIS/Include/cmsis_gcc.h ****   #define __INLINE                               inline
  45:drivers/CMSIS/Include/cmsis_gcc.h **** #endif
  46:drivers/CMSIS/Include/cmsis_gcc.h **** #ifndef   __STATIC_INLINE
  47:drivers/CMSIS/Include/cmsis_gcc.h ****   #define __STATIC_INLINE                        static inline
  48:drivers/CMSIS/Include/cmsis_gcc.h **** #endif
  49:drivers/CMSIS/Include/cmsis_gcc.h **** #ifndef   __STATIC_FORCEINLINE                 
  50:drivers/CMSIS/Include/cmsis_gcc.h ****   #define __STATIC_FORCEINLINE                   __attribute__((always_inline)) static inline
  51:drivers/CMSIS/Include/cmsis_gcc.h **** #endif                                           
  52:drivers/CMSIS/Include/cmsis_gcc.h **** #ifndef   __NO_RETURN
  53:drivers/CMSIS/Include/cmsis_gcc.h ****   #define __NO_RETURN                            __attribute__((__noreturn__))
  54:drivers/CMSIS/Include/cmsis_gcc.h **** #endif
  55:drivers/CMSIS/Include/cmsis_gcc.h **** #ifndef   __USED
  56:drivers/CMSIS/Include/cmsis_gcc.h ****   #define __USED                                 __attribute__((used))
  57:drivers/CMSIS/Include/cmsis_gcc.h **** #endif
  58:drivers/CMSIS/Include/cmsis_gcc.h **** #ifndef   __WEAK
  59:drivers/CMSIS/Include/cmsis_gcc.h ****   #define __WEAK                                 __attribute__((weak))
  60:drivers/CMSIS/Include/cmsis_gcc.h **** #endif
  61:drivers/CMSIS/Include/cmsis_gcc.h **** #ifndef   __PACKED
  62:drivers/CMSIS/Include/cmsis_gcc.h ****   #define __PACKED                               __attribute__((packed, aligned(1)))
  63:drivers/CMSIS/Include/cmsis_gcc.h **** #endif
  64:drivers/CMSIS/Include/cmsis_gcc.h **** #ifndef   __PACKED_STRUCT
  65:drivers/CMSIS/Include/cmsis_gcc.h ****   #define __PACKED_STRUCT                        struct __attribute__((packed, aligned(1)))
  66:drivers/CMSIS/Include/cmsis_gcc.h **** #endif
  67:drivers/CMSIS/Include/cmsis_gcc.h **** #ifndef   __PACKED_UNION
  68:drivers/CMSIS/Include/cmsis_gcc.h ****   #define __PACKED_UNION                         union __attribute__((packed, aligned(1)))
  69:drivers/CMSIS/Include/cmsis_gcc.h **** #endif
  70:drivers/CMSIS/Include/cmsis_gcc.h **** #ifndef   __UNALIGNED_UINT32        /* deprecated */
  71:drivers/CMSIS/Include/cmsis_gcc.h ****   #pragma GCC diagnostic push
  72:drivers/CMSIS/Include/cmsis_gcc.h ****   #pragma GCC diagnostic ignored "-Wpacked"
  73:drivers/CMSIS/Include/cmsis_gcc.h ****   #pragma GCC diagnostic ignored "-Wattributes"
  74:drivers/CMSIS/Include/cmsis_gcc.h ****   struct __attribute__((packed)) T_UINT32 { uint32_t v; };
  75:drivers/CMSIS/Include/cmsis_gcc.h ****   #pragma GCC diagnostic pop
  76:drivers/CMSIS/Include/cmsis_gcc.h ****   #define __UNALIGNED_UINT32(x)                  (((struct T_UINT32 *)(x))->v)
  77:drivers/CMSIS/Include/cmsis_gcc.h **** #endif
  78:drivers/CMSIS/Include/cmsis_gcc.h **** #ifndef   __UNALIGNED_UINT16_WRITE
  79:drivers/CMSIS/Include/cmsis_gcc.h ****   #pragma GCC diagnostic push
  80:drivers/CMSIS/Include/cmsis_gcc.h ****   #pragma GCC diagnostic ignored "-Wpacked"
  81:drivers/CMSIS/Include/cmsis_gcc.h ****   #pragma GCC diagnostic ignored "-Wattributes"
  82:drivers/CMSIS/Include/cmsis_gcc.h ****   __PACKED_STRUCT T_UINT16_WRITE { uint16_t v; };
  83:drivers/CMSIS/Include/cmsis_gcc.h ****   #pragma GCC diagnostic pop
  84:drivers/CMSIS/Include/cmsis_gcc.h ****   #define __UNALIGNED_UINT16_WRITE(addr, val)    (void)((((struct T_UINT16_WRITE *)(void *)(addr))-
  85:drivers/CMSIS/Include/cmsis_gcc.h **** #endif
  86:drivers/CMSIS/Include/cmsis_gcc.h **** #ifndef   __UNALIGNED_UINT16_READ
  87:drivers/CMSIS/Include/cmsis_gcc.h ****   #pragma GCC diagnostic push
  88:drivers/CMSIS/Include/cmsis_gcc.h ****   #pragma GCC diagnostic ignored "-Wpacked"
  89:drivers/CMSIS/Include/cmsis_gcc.h ****   #pragma GCC diagnostic ignored "-Wattributes"
  90:drivers/CMSIS/Include/cmsis_gcc.h ****   __PACKED_STRUCT T_UINT16_READ { uint16_t v; };
  91:drivers/CMSIS/Include/cmsis_gcc.h ****   #pragma GCC diagnostic pop
  92:drivers/CMSIS/Include/cmsis_gcc.h ****   #define __UNALIGNED_UINT16_READ(addr)          (((const struct T_UINT16_READ *)(const void *)(add
  93:drivers/CMSIS/Include/cmsis_gcc.h **** #endif
  94:drivers/CMSIS/Include/cmsis_gcc.h **** #ifndef   __UNALIGNED_UINT32_WRITE
ARM GAS  C:\Users\mikal\AppData\Local\Temp\cctQ2Bzi.s 			page 16


  95:drivers/CMSIS/Include/cmsis_gcc.h ****   #pragma GCC diagnostic push
  96:drivers/CMSIS/Include/cmsis_gcc.h ****   #pragma GCC diagnostic ignored "-Wpacked"
  97:drivers/CMSIS/Include/cmsis_gcc.h ****   #pragma GCC diagnostic ignored "-Wattributes"
  98:drivers/CMSIS/Include/cmsis_gcc.h ****   __PACKED_STRUCT T_UINT32_WRITE { uint32_t v; };
  99:drivers/CMSIS/Include/cmsis_gcc.h ****   #pragma GCC diagnostic pop
 100:drivers/CMSIS/Include/cmsis_gcc.h ****   #define __UNALIGNED_UINT32_WRITE(addr, val)    (void)((((struct T_UINT32_WRITE *)(void *)(addr))-
 101:drivers/CMSIS/Include/cmsis_gcc.h **** #endif
 102:drivers/CMSIS/Include/cmsis_gcc.h **** #ifndef   __UNALIGNED_UINT32_READ
 103:drivers/CMSIS/Include/cmsis_gcc.h ****   #pragma GCC diagnostic push
 104:drivers/CMSIS/Include/cmsis_gcc.h ****   #pragma GCC diagnostic ignored "-Wpacked"
 105:drivers/CMSIS/Include/cmsis_gcc.h ****   #pragma GCC diagnostic ignored "-Wattributes"
 106:drivers/CMSIS/Include/cmsis_gcc.h ****   __PACKED_STRUCT T_UINT32_READ { uint32_t v; };
 107:drivers/CMSIS/Include/cmsis_gcc.h ****   #pragma GCC diagnostic pop
 108:drivers/CMSIS/Include/cmsis_gcc.h ****   #define __UNALIGNED_UINT32_READ(addr)          (((const struct T_UINT32_READ *)(const void *)(add
 109:drivers/CMSIS/Include/cmsis_gcc.h **** #endif
 110:drivers/CMSIS/Include/cmsis_gcc.h **** #ifndef   __ALIGNED
 111:drivers/CMSIS/Include/cmsis_gcc.h ****   #define __ALIGNED(x)                           __attribute__((aligned(x)))
 112:drivers/CMSIS/Include/cmsis_gcc.h **** #endif
 113:drivers/CMSIS/Include/cmsis_gcc.h **** #ifndef   __RESTRICT
 114:drivers/CMSIS/Include/cmsis_gcc.h ****   #define __RESTRICT                             __restrict
 115:drivers/CMSIS/Include/cmsis_gcc.h **** #endif
 116:drivers/CMSIS/Include/cmsis_gcc.h **** #ifndef   __COMPILER_BARRIER
 117:drivers/CMSIS/Include/cmsis_gcc.h ****   #define __COMPILER_BARRIER()                   __ASM volatile("":::"memory")
 118:drivers/CMSIS/Include/cmsis_gcc.h **** #endif
 119:drivers/CMSIS/Include/cmsis_gcc.h **** 
 120:drivers/CMSIS/Include/cmsis_gcc.h **** /* #########################  Startup and Lowlevel Init  ######################## */
 121:drivers/CMSIS/Include/cmsis_gcc.h **** 
 122:drivers/CMSIS/Include/cmsis_gcc.h **** #ifndef __PROGRAM_START
 123:drivers/CMSIS/Include/cmsis_gcc.h **** 
 124:drivers/CMSIS/Include/cmsis_gcc.h **** /**
 125:drivers/CMSIS/Include/cmsis_gcc.h ****   \brief   Initializes data and bss sections
 126:drivers/CMSIS/Include/cmsis_gcc.h ****   \details This default implementations initialized all data and additional bss
 127:drivers/CMSIS/Include/cmsis_gcc.h ****            sections relying on .copy.table and .zero.table specified properly
 128:drivers/CMSIS/Include/cmsis_gcc.h ****            in the used linker script.
 129:drivers/CMSIS/Include/cmsis_gcc.h ****   
 130:drivers/CMSIS/Include/cmsis_gcc.h ****  */
 131:drivers/CMSIS/Include/cmsis_gcc.h **** __STATIC_FORCEINLINE __NO_RETURN void __cmsis_start(void)
 132:drivers/CMSIS/Include/cmsis_gcc.h **** {
 133:drivers/CMSIS/Include/cmsis_gcc.h ****   extern void _start(void) __NO_RETURN;
 134:drivers/CMSIS/Include/cmsis_gcc.h ****   
 135:drivers/CMSIS/Include/cmsis_gcc.h ****   typedef struct {
 136:drivers/CMSIS/Include/cmsis_gcc.h ****     uint32_t const* src;
 137:drivers/CMSIS/Include/cmsis_gcc.h ****     uint32_t* dest;
 138:drivers/CMSIS/Include/cmsis_gcc.h ****     uint32_t  wlen;
 139:drivers/CMSIS/Include/cmsis_gcc.h ****   } __copy_table_t;
 140:drivers/CMSIS/Include/cmsis_gcc.h ****   
 141:drivers/CMSIS/Include/cmsis_gcc.h ****   typedef struct {
 142:drivers/CMSIS/Include/cmsis_gcc.h ****     uint32_t* dest;
 143:drivers/CMSIS/Include/cmsis_gcc.h ****     uint32_t  wlen;
 144:drivers/CMSIS/Include/cmsis_gcc.h ****   } __zero_table_t;
 145:drivers/CMSIS/Include/cmsis_gcc.h ****   
 146:drivers/CMSIS/Include/cmsis_gcc.h ****   extern const __copy_table_t __copy_table_start__;
 147:drivers/CMSIS/Include/cmsis_gcc.h ****   extern const __copy_table_t __copy_table_end__;
 148:drivers/CMSIS/Include/cmsis_gcc.h ****   extern const __zero_table_t __zero_table_start__;
 149:drivers/CMSIS/Include/cmsis_gcc.h ****   extern const __zero_table_t __zero_table_end__;
 150:drivers/CMSIS/Include/cmsis_gcc.h **** 
 151:drivers/CMSIS/Include/cmsis_gcc.h ****   for (__copy_table_t const* pTable = &__copy_table_start__; pTable < &__copy_table_end__; ++pTable
ARM GAS  C:\Users\mikal\AppData\Local\Temp\cctQ2Bzi.s 			page 17


 152:drivers/CMSIS/Include/cmsis_gcc.h ****     for(uint32_t i=0u; i<pTable->wlen; ++i) {
 153:drivers/CMSIS/Include/cmsis_gcc.h ****       pTable->dest[i] = pTable->src[i];
 154:drivers/CMSIS/Include/cmsis_gcc.h ****     }
 155:drivers/CMSIS/Include/cmsis_gcc.h ****   }
 156:drivers/CMSIS/Include/cmsis_gcc.h ****  
 157:drivers/CMSIS/Include/cmsis_gcc.h ****   for (__zero_table_t const* pTable = &__zero_table_start__; pTable < &__zero_table_end__; ++pTable
 158:drivers/CMSIS/Include/cmsis_gcc.h ****     for(uint32_t i=0u; i<pTable->wlen; ++i) {
 159:drivers/CMSIS/Include/cmsis_gcc.h ****       pTable->dest[i] = 0u;
 160:drivers/CMSIS/Include/cmsis_gcc.h ****     }
 161:drivers/CMSIS/Include/cmsis_gcc.h ****   }
 162:drivers/CMSIS/Include/cmsis_gcc.h ****  
 163:drivers/CMSIS/Include/cmsis_gcc.h ****   _start();
 164:drivers/CMSIS/Include/cmsis_gcc.h **** }
 165:drivers/CMSIS/Include/cmsis_gcc.h ****   
 166:drivers/CMSIS/Include/cmsis_gcc.h **** #define __PROGRAM_START           __cmsis_start
 167:drivers/CMSIS/Include/cmsis_gcc.h **** #endif
 168:drivers/CMSIS/Include/cmsis_gcc.h **** 
 169:drivers/CMSIS/Include/cmsis_gcc.h **** #ifndef __INITIAL_SP
 170:drivers/CMSIS/Include/cmsis_gcc.h **** #define __INITIAL_SP              __StackTop
 171:drivers/CMSIS/Include/cmsis_gcc.h **** #endif
 172:drivers/CMSIS/Include/cmsis_gcc.h **** 
 173:drivers/CMSIS/Include/cmsis_gcc.h **** #ifndef __STACK_LIMIT
 174:drivers/CMSIS/Include/cmsis_gcc.h **** #define __STACK_LIMIT             __StackLimit
 175:drivers/CMSIS/Include/cmsis_gcc.h **** #endif
 176:drivers/CMSIS/Include/cmsis_gcc.h **** 
 177:drivers/CMSIS/Include/cmsis_gcc.h **** #ifndef __VECTOR_TABLE
 178:drivers/CMSIS/Include/cmsis_gcc.h **** #define __VECTOR_TABLE            __Vectors
 179:drivers/CMSIS/Include/cmsis_gcc.h **** #endif
 180:drivers/CMSIS/Include/cmsis_gcc.h **** 
 181:drivers/CMSIS/Include/cmsis_gcc.h **** #ifndef __VECTOR_TABLE_ATTRIBUTE
 182:drivers/CMSIS/Include/cmsis_gcc.h **** #define __VECTOR_TABLE_ATTRIBUTE  __attribute((used, section(".vectors")))
 183:drivers/CMSIS/Include/cmsis_gcc.h **** #endif
 184:drivers/CMSIS/Include/cmsis_gcc.h **** 
 185:drivers/CMSIS/Include/cmsis_gcc.h **** /* ###########################  Core Function Access  ########################### */
 186:drivers/CMSIS/Include/cmsis_gcc.h **** /** \ingroup  CMSIS_Core_FunctionInterface
 187:drivers/CMSIS/Include/cmsis_gcc.h ****     \defgroup CMSIS_Core_RegAccFunctions CMSIS Core Register Access Functions
 188:drivers/CMSIS/Include/cmsis_gcc.h ****   @{
 189:drivers/CMSIS/Include/cmsis_gcc.h ****  */
 190:drivers/CMSIS/Include/cmsis_gcc.h **** 
 191:drivers/CMSIS/Include/cmsis_gcc.h **** /**
 192:drivers/CMSIS/Include/cmsis_gcc.h ****   \brief   Enable IRQ Interrupts
 193:drivers/CMSIS/Include/cmsis_gcc.h ****   \details Enables IRQ interrupts by clearing the I-bit in the CPSR.
 194:drivers/CMSIS/Include/cmsis_gcc.h ****            Can only be executed in Privileged modes.
 195:drivers/CMSIS/Include/cmsis_gcc.h ****  */
 196:drivers/CMSIS/Include/cmsis_gcc.h **** __STATIC_FORCEINLINE void __enable_irq(void)
 197:drivers/CMSIS/Include/cmsis_gcc.h **** {
 198:drivers/CMSIS/Include/cmsis_gcc.h ****   __ASM volatile ("cpsie i" : : : "memory");
 199:drivers/CMSIS/Include/cmsis_gcc.h **** }
 200:drivers/CMSIS/Include/cmsis_gcc.h **** 
 201:drivers/CMSIS/Include/cmsis_gcc.h **** 
 202:drivers/CMSIS/Include/cmsis_gcc.h **** /**
 203:drivers/CMSIS/Include/cmsis_gcc.h ****   \brief   Disable IRQ Interrupts
 204:drivers/CMSIS/Include/cmsis_gcc.h ****   \details Disables IRQ interrupts by setting the I-bit in the CPSR.
 205:drivers/CMSIS/Include/cmsis_gcc.h ****            Can only be executed in Privileged modes.
 206:drivers/CMSIS/Include/cmsis_gcc.h ****  */
 207:drivers/CMSIS/Include/cmsis_gcc.h **** __STATIC_FORCEINLINE void __disable_irq(void)
 208:drivers/CMSIS/Include/cmsis_gcc.h **** {
ARM GAS  C:\Users\mikal\AppData\Local\Temp\cctQ2Bzi.s 			page 18


 209:drivers/CMSIS/Include/cmsis_gcc.h ****   __ASM volatile ("cpsid i" : : : "memory");
 210:drivers/CMSIS/Include/cmsis_gcc.h **** }
 211:drivers/CMSIS/Include/cmsis_gcc.h **** 
 212:drivers/CMSIS/Include/cmsis_gcc.h **** 
 213:drivers/CMSIS/Include/cmsis_gcc.h **** /**
 214:drivers/CMSIS/Include/cmsis_gcc.h ****   \brief   Get Control Register
 215:drivers/CMSIS/Include/cmsis_gcc.h ****   \details Returns the content of the Control Register.
 216:drivers/CMSIS/Include/cmsis_gcc.h ****   \return               Control Register value
 217:drivers/CMSIS/Include/cmsis_gcc.h ****  */
 218:drivers/CMSIS/Include/cmsis_gcc.h **** __STATIC_FORCEINLINE uint32_t __get_CONTROL(void)
 219:drivers/CMSIS/Include/cmsis_gcc.h **** {
 220:drivers/CMSIS/Include/cmsis_gcc.h ****   uint32_t result;
 221:drivers/CMSIS/Include/cmsis_gcc.h **** 
 222:drivers/CMSIS/Include/cmsis_gcc.h ****   __ASM volatile ("MRS %0, control" : "=r" (result) );
 223:drivers/CMSIS/Include/cmsis_gcc.h ****   return(result);
 224:drivers/CMSIS/Include/cmsis_gcc.h **** }
 225:drivers/CMSIS/Include/cmsis_gcc.h **** 
 226:drivers/CMSIS/Include/cmsis_gcc.h **** 
 227:drivers/CMSIS/Include/cmsis_gcc.h **** #if (defined (__ARM_FEATURE_CMSE ) && (__ARM_FEATURE_CMSE == 3))
 228:drivers/CMSIS/Include/cmsis_gcc.h **** /**
 229:drivers/CMSIS/Include/cmsis_gcc.h ****   \brief   Get Control Register (non-secure)
 230:drivers/CMSIS/Include/cmsis_gcc.h ****   \details Returns the content of the non-secure Control Register when in secure mode.
 231:drivers/CMSIS/Include/cmsis_gcc.h ****   \return               non-secure Control Register value
 232:drivers/CMSIS/Include/cmsis_gcc.h ****  */
 233:drivers/CMSIS/Include/cmsis_gcc.h **** __STATIC_FORCEINLINE uint32_t __TZ_get_CONTROL_NS(void)
 234:drivers/CMSIS/Include/cmsis_gcc.h **** {
 235:drivers/CMSIS/Include/cmsis_gcc.h ****   uint32_t result;
 236:drivers/CMSIS/Include/cmsis_gcc.h **** 
 237:drivers/CMSIS/Include/cmsis_gcc.h ****   __ASM volatile ("MRS %0, control_ns" : "=r" (result) );
 238:drivers/CMSIS/Include/cmsis_gcc.h ****   return(result);
 239:drivers/CMSIS/Include/cmsis_gcc.h **** }
 240:drivers/CMSIS/Include/cmsis_gcc.h **** #endif
 241:drivers/CMSIS/Include/cmsis_gcc.h **** 
 242:drivers/CMSIS/Include/cmsis_gcc.h **** 
 243:drivers/CMSIS/Include/cmsis_gcc.h **** /**
 244:drivers/CMSIS/Include/cmsis_gcc.h ****   \brief   Set Control Register
 245:drivers/CMSIS/Include/cmsis_gcc.h ****   \details Writes the given value to the Control Register.
 246:drivers/CMSIS/Include/cmsis_gcc.h ****   \param [in]    control  Control Register value to set
 247:drivers/CMSIS/Include/cmsis_gcc.h ****  */
 248:drivers/CMSIS/Include/cmsis_gcc.h **** __STATIC_FORCEINLINE void __set_CONTROL(uint32_t control)
 249:drivers/CMSIS/Include/cmsis_gcc.h **** {
 250:drivers/CMSIS/Include/cmsis_gcc.h ****   __ASM volatile ("MSR control, %0" : : "r" (control) : "memory");
 251:drivers/CMSIS/Include/cmsis_gcc.h **** }
 252:drivers/CMSIS/Include/cmsis_gcc.h **** 
 253:drivers/CMSIS/Include/cmsis_gcc.h **** 
 254:drivers/CMSIS/Include/cmsis_gcc.h **** #if (defined (__ARM_FEATURE_CMSE ) && (__ARM_FEATURE_CMSE == 3))
 255:drivers/CMSIS/Include/cmsis_gcc.h **** /**
 256:drivers/CMSIS/Include/cmsis_gcc.h ****   \brief   Set Control Register (non-secure)
 257:drivers/CMSIS/Include/cmsis_gcc.h ****   \details Writes the given value to the non-secure Control Register when in secure state.
 258:drivers/CMSIS/Include/cmsis_gcc.h ****   \param [in]    control  Control Register value to set
 259:drivers/CMSIS/Include/cmsis_gcc.h ****  */
 260:drivers/CMSIS/Include/cmsis_gcc.h **** __STATIC_FORCEINLINE void __TZ_set_CONTROL_NS(uint32_t control)
 261:drivers/CMSIS/Include/cmsis_gcc.h **** {
 262:drivers/CMSIS/Include/cmsis_gcc.h ****   __ASM volatile ("MSR control_ns, %0" : : "r" (control) : "memory");
 263:drivers/CMSIS/Include/cmsis_gcc.h **** }
 264:drivers/CMSIS/Include/cmsis_gcc.h **** #endif
 265:drivers/CMSIS/Include/cmsis_gcc.h **** 
ARM GAS  C:\Users\mikal\AppData\Local\Temp\cctQ2Bzi.s 			page 19


 266:drivers/CMSIS/Include/cmsis_gcc.h **** 
 267:drivers/CMSIS/Include/cmsis_gcc.h **** /**
 268:drivers/CMSIS/Include/cmsis_gcc.h ****   \brief   Get IPSR Register
 269:drivers/CMSIS/Include/cmsis_gcc.h ****   \details Returns the content of the IPSR Register.
 270:drivers/CMSIS/Include/cmsis_gcc.h ****   \return               IPSR Register value
 271:drivers/CMSIS/Include/cmsis_gcc.h ****  */
 272:drivers/CMSIS/Include/cmsis_gcc.h **** __STATIC_FORCEINLINE uint32_t __get_IPSR(void)
 273:drivers/CMSIS/Include/cmsis_gcc.h **** {
 274:drivers/CMSIS/Include/cmsis_gcc.h ****   uint32_t result;
 275:drivers/CMSIS/Include/cmsis_gcc.h **** 
 276:drivers/CMSIS/Include/cmsis_gcc.h ****   __ASM volatile ("MRS %0, ipsr" : "=r" (result) );
 277:drivers/CMSIS/Include/cmsis_gcc.h ****   return(result);
 278:drivers/CMSIS/Include/cmsis_gcc.h **** }
 279:drivers/CMSIS/Include/cmsis_gcc.h **** 
 280:drivers/CMSIS/Include/cmsis_gcc.h **** 
 281:drivers/CMSIS/Include/cmsis_gcc.h **** /**
 282:drivers/CMSIS/Include/cmsis_gcc.h ****   \brief   Get APSR Register
 283:drivers/CMSIS/Include/cmsis_gcc.h ****   \details Returns the content of the APSR Register.
 284:drivers/CMSIS/Include/cmsis_gcc.h ****   \return               APSR Register value
 285:drivers/CMSIS/Include/cmsis_gcc.h ****  */
 286:drivers/CMSIS/Include/cmsis_gcc.h **** __STATIC_FORCEINLINE uint32_t __get_APSR(void)
 287:drivers/CMSIS/Include/cmsis_gcc.h **** {
 288:drivers/CMSIS/Include/cmsis_gcc.h ****   uint32_t result;
 289:drivers/CMSIS/Include/cmsis_gcc.h **** 
 290:drivers/CMSIS/Include/cmsis_gcc.h ****   __ASM volatile ("MRS %0, apsr" : "=r" (result) );
 291:drivers/CMSIS/Include/cmsis_gcc.h ****   return(result);
 292:drivers/CMSIS/Include/cmsis_gcc.h **** }
 293:drivers/CMSIS/Include/cmsis_gcc.h **** 
 294:drivers/CMSIS/Include/cmsis_gcc.h **** 
 295:drivers/CMSIS/Include/cmsis_gcc.h **** /**
 296:drivers/CMSIS/Include/cmsis_gcc.h ****   \brief   Get xPSR Register
 297:drivers/CMSIS/Include/cmsis_gcc.h ****   \details Returns the content of the xPSR Register.
 298:drivers/CMSIS/Include/cmsis_gcc.h ****   \return               xPSR Register value
 299:drivers/CMSIS/Include/cmsis_gcc.h ****  */
 300:drivers/CMSIS/Include/cmsis_gcc.h **** __STATIC_FORCEINLINE uint32_t __get_xPSR(void)
 301:drivers/CMSIS/Include/cmsis_gcc.h **** {
 302:drivers/CMSIS/Include/cmsis_gcc.h ****   uint32_t result;
 303:drivers/CMSIS/Include/cmsis_gcc.h **** 
 304:drivers/CMSIS/Include/cmsis_gcc.h ****   __ASM volatile ("MRS %0, xpsr" : "=r" (result) );
 305:drivers/CMSIS/Include/cmsis_gcc.h ****   return(result);
 306:drivers/CMSIS/Include/cmsis_gcc.h **** }
 307:drivers/CMSIS/Include/cmsis_gcc.h **** 
 308:drivers/CMSIS/Include/cmsis_gcc.h **** 
 309:drivers/CMSIS/Include/cmsis_gcc.h **** /**
 310:drivers/CMSIS/Include/cmsis_gcc.h ****   \brief   Get Process Stack Pointer
 311:drivers/CMSIS/Include/cmsis_gcc.h ****   \details Returns the current value of the Process Stack Pointer (PSP).
 312:drivers/CMSIS/Include/cmsis_gcc.h ****   \return               PSP Register value
 313:drivers/CMSIS/Include/cmsis_gcc.h ****  */
 314:drivers/CMSIS/Include/cmsis_gcc.h **** __STATIC_FORCEINLINE uint32_t __get_PSP(void)
 315:drivers/CMSIS/Include/cmsis_gcc.h **** {
 316:drivers/CMSIS/Include/cmsis_gcc.h ****   uint32_t result;
 317:drivers/CMSIS/Include/cmsis_gcc.h **** 
 318:drivers/CMSIS/Include/cmsis_gcc.h ****   __ASM volatile ("MRS %0, psp"  : "=r" (result) );
 319:drivers/CMSIS/Include/cmsis_gcc.h ****   return(result);
 320:drivers/CMSIS/Include/cmsis_gcc.h **** }
 321:drivers/CMSIS/Include/cmsis_gcc.h **** 
 322:drivers/CMSIS/Include/cmsis_gcc.h **** 
ARM GAS  C:\Users\mikal\AppData\Local\Temp\cctQ2Bzi.s 			page 20


 323:drivers/CMSIS/Include/cmsis_gcc.h **** #if (defined (__ARM_FEATURE_CMSE ) && (__ARM_FEATURE_CMSE == 3))
 324:drivers/CMSIS/Include/cmsis_gcc.h **** /**
 325:drivers/CMSIS/Include/cmsis_gcc.h ****   \brief   Get Process Stack Pointer (non-secure)
 326:drivers/CMSIS/Include/cmsis_gcc.h ****   \details Returns the current value of the non-secure Process Stack Pointer (PSP) when in secure s
 327:drivers/CMSIS/Include/cmsis_gcc.h ****   \return               PSP Register value
 328:drivers/CMSIS/Include/cmsis_gcc.h ****  */
 329:drivers/CMSIS/Include/cmsis_gcc.h **** __STATIC_FORCEINLINE uint32_t __TZ_get_PSP_NS(void)
 330:drivers/CMSIS/Include/cmsis_gcc.h **** {
 331:drivers/CMSIS/Include/cmsis_gcc.h ****   uint32_t result;
 332:drivers/CMSIS/Include/cmsis_gcc.h **** 
 333:drivers/CMSIS/Include/cmsis_gcc.h ****   __ASM volatile ("MRS %0, psp_ns"  : "=r" (result) );
 334:drivers/CMSIS/Include/cmsis_gcc.h ****   return(result);
 335:drivers/CMSIS/Include/cmsis_gcc.h **** }
 336:drivers/CMSIS/Include/cmsis_gcc.h **** #endif
 337:drivers/CMSIS/Include/cmsis_gcc.h **** 
 338:drivers/CMSIS/Include/cmsis_gcc.h **** 
 339:drivers/CMSIS/Include/cmsis_gcc.h **** /**
 340:drivers/CMSIS/Include/cmsis_gcc.h ****   \brief   Set Process Stack Pointer
 341:drivers/CMSIS/Include/cmsis_gcc.h ****   \details Assigns the given value to the Process Stack Pointer (PSP).
 342:drivers/CMSIS/Include/cmsis_gcc.h ****   \param [in]    topOfProcStack  Process Stack Pointer value to set
 343:drivers/CMSIS/Include/cmsis_gcc.h ****  */
 344:drivers/CMSIS/Include/cmsis_gcc.h **** __STATIC_FORCEINLINE void __set_PSP(uint32_t topOfProcStack)
 345:drivers/CMSIS/Include/cmsis_gcc.h **** {
 346:drivers/CMSIS/Include/cmsis_gcc.h ****   __ASM volatile ("MSR psp, %0" : : "r" (topOfProcStack) : );
 347:drivers/CMSIS/Include/cmsis_gcc.h **** }
 348:drivers/CMSIS/Include/cmsis_gcc.h **** 
 349:drivers/CMSIS/Include/cmsis_gcc.h **** 
 350:drivers/CMSIS/Include/cmsis_gcc.h **** #if (defined (__ARM_FEATURE_CMSE ) && (__ARM_FEATURE_CMSE == 3))
 351:drivers/CMSIS/Include/cmsis_gcc.h **** /**
 352:drivers/CMSIS/Include/cmsis_gcc.h ****   \brief   Set Process Stack Pointer (non-secure)
 353:drivers/CMSIS/Include/cmsis_gcc.h ****   \details Assigns the given value to the non-secure Process Stack Pointer (PSP) when in secure sta
 354:drivers/CMSIS/Include/cmsis_gcc.h ****   \param [in]    topOfProcStack  Process Stack Pointer value to set
 355:drivers/CMSIS/Include/cmsis_gcc.h ****  */
 356:drivers/CMSIS/Include/cmsis_gcc.h **** __STATIC_FORCEINLINE void __TZ_set_PSP_NS(uint32_t topOfProcStack)
 357:drivers/CMSIS/Include/cmsis_gcc.h **** {
 358:drivers/CMSIS/Include/cmsis_gcc.h ****   __ASM volatile ("MSR psp_ns, %0" : : "r" (topOfProcStack) : );
 359:drivers/CMSIS/Include/cmsis_gcc.h **** }
 360:drivers/CMSIS/Include/cmsis_gcc.h **** #endif
 361:drivers/CMSIS/Include/cmsis_gcc.h **** 
 362:drivers/CMSIS/Include/cmsis_gcc.h **** 
 363:drivers/CMSIS/Include/cmsis_gcc.h **** /**
 364:drivers/CMSIS/Include/cmsis_gcc.h ****   \brief   Get Main Stack Pointer
 365:drivers/CMSIS/Include/cmsis_gcc.h ****   \details Returns the current value of the Main Stack Pointer (MSP).
 366:drivers/CMSIS/Include/cmsis_gcc.h ****   \return               MSP Register value
 367:drivers/CMSIS/Include/cmsis_gcc.h ****  */
 368:drivers/CMSIS/Include/cmsis_gcc.h **** __STATIC_FORCEINLINE uint32_t __get_MSP(void)
 369:drivers/CMSIS/Include/cmsis_gcc.h **** {
 370:drivers/CMSIS/Include/cmsis_gcc.h ****   uint32_t result;
 371:drivers/CMSIS/Include/cmsis_gcc.h **** 
 372:drivers/CMSIS/Include/cmsis_gcc.h ****   __ASM volatile ("MRS %0, msp" : "=r" (result) );
 373:drivers/CMSIS/Include/cmsis_gcc.h ****   return(result);
 374:drivers/CMSIS/Include/cmsis_gcc.h **** }
 375:drivers/CMSIS/Include/cmsis_gcc.h **** 
 376:drivers/CMSIS/Include/cmsis_gcc.h **** 
 377:drivers/CMSIS/Include/cmsis_gcc.h **** #if (defined (__ARM_FEATURE_CMSE ) && (__ARM_FEATURE_CMSE == 3))
 378:drivers/CMSIS/Include/cmsis_gcc.h **** /**
 379:drivers/CMSIS/Include/cmsis_gcc.h ****   \brief   Get Main Stack Pointer (non-secure)
ARM GAS  C:\Users\mikal\AppData\Local\Temp\cctQ2Bzi.s 			page 21


 380:drivers/CMSIS/Include/cmsis_gcc.h ****   \details Returns the current value of the non-secure Main Stack Pointer (MSP) when in secure stat
 381:drivers/CMSIS/Include/cmsis_gcc.h ****   \return               MSP Register value
 382:drivers/CMSIS/Include/cmsis_gcc.h ****  */
 383:drivers/CMSIS/Include/cmsis_gcc.h **** __STATIC_FORCEINLINE uint32_t __TZ_get_MSP_NS(void)
 384:drivers/CMSIS/Include/cmsis_gcc.h **** {
 385:drivers/CMSIS/Include/cmsis_gcc.h ****   uint32_t result;
 386:drivers/CMSIS/Include/cmsis_gcc.h **** 
 387:drivers/CMSIS/Include/cmsis_gcc.h ****   __ASM volatile ("MRS %0, msp_ns" : "=r" (result) );
 388:drivers/CMSIS/Include/cmsis_gcc.h ****   return(result);
 389:drivers/CMSIS/Include/cmsis_gcc.h **** }
 390:drivers/CMSIS/Include/cmsis_gcc.h **** #endif
 391:drivers/CMSIS/Include/cmsis_gcc.h **** 
 392:drivers/CMSIS/Include/cmsis_gcc.h **** 
 393:drivers/CMSIS/Include/cmsis_gcc.h **** /**
 394:drivers/CMSIS/Include/cmsis_gcc.h ****   \brief   Set Main Stack Pointer
 395:drivers/CMSIS/Include/cmsis_gcc.h ****   \details Assigns the given value to the Main Stack Pointer (MSP).
 396:drivers/CMSIS/Include/cmsis_gcc.h ****   \param [in]    topOfMainStack  Main Stack Pointer value to set
 397:drivers/CMSIS/Include/cmsis_gcc.h ****  */
 398:drivers/CMSIS/Include/cmsis_gcc.h **** __STATIC_FORCEINLINE void __set_MSP(uint32_t topOfMainStack)
 399:drivers/CMSIS/Include/cmsis_gcc.h **** {
 400:drivers/CMSIS/Include/cmsis_gcc.h ****   __ASM volatile ("MSR msp, %0" : : "r" (topOfMainStack) : );
 401:drivers/CMSIS/Include/cmsis_gcc.h **** }
 402:drivers/CMSIS/Include/cmsis_gcc.h **** 
 403:drivers/CMSIS/Include/cmsis_gcc.h **** 
 404:drivers/CMSIS/Include/cmsis_gcc.h **** #if (defined (__ARM_FEATURE_CMSE ) && (__ARM_FEATURE_CMSE == 3))
 405:drivers/CMSIS/Include/cmsis_gcc.h **** /**
 406:drivers/CMSIS/Include/cmsis_gcc.h ****   \brief   Set Main Stack Pointer (non-secure)
 407:drivers/CMSIS/Include/cmsis_gcc.h ****   \details Assigns the given value to the non-secure Main Stack Pointer (MSP) when in secure state.
 408:drivers/CMSIS/Include/cmsis_gcc.h ****   \param [in]    topOfMainStack  Main Stack Pointer value to set
 409:drivers/CMSIS/Include/cmsis_gcc.h ****  */
 410:drivers/CMSIS/Include/cmsis_gcc.h **** __STATIC_FORCEINLINE void __TZ_set_MSP_NS(uint32_t topOfMainStack)
 411:drivers/CMSIS/Include/cmsis_gcc.h **** {
 412:drivers/CMSIS/Include/cmsis_gcc.h ****   __ASM volatile ("MSR msp_ns, %0" : : "r" (topOfMainStack) : );
 413:drivers/CMSIS/Include/cmsis_gcc.h **** }
 414:drivers/CMSIS/Include/cmsis_gcc.h **** #endif
 415:drivers/CMSIS/Include/cmsis_gcc.h **** 
 416:drivers/CMSIS/Include/cmsis_gcc.h **** 
 417:drivers/CMSIS/Include/cmsis_gcc.h **** #if (defined (__ARM_FEATURE_CMSE ) && (__ARM_FEATURE_CMSE == 3))
 418:drivers/CMSIS/Include/cmsis_gcc.h **** /**
 419:drivers/CMSIS/Include/cmsis_gcc.h ****   \brief   Get Stack Pointer (non-secure)
 420:drivers/CMSIS/Include/cmsis_gcc.h ****   \details Returns the current value of the non-secure Stack Pointer (SP) when in secure state.
 421:drivers/CMSIS/Include/cmsis_gcc.h ****   \return               SP Register value
 422:drivers/CMSIS/Include/cmsis_gcc.h ****  */
 423:drivers/CMSIS/Include/cmsis_gcc.h **** __STATIC_FORCEINLINE uint32_t __TZ_get_SP_NS(void)
 424:drivers/CMSIS/Include/cmsis_gcc.h **** {
 425:drivers/CMSIS/Include/cmsis_gcc.h ****   uint32_t result;
 426:drivers/CMSIS/Include/cmsis_gcc.h **** 
 427:drivers/CMSIS/Include/cmsis_gcc.h ****   __ASM volatile ("MRS %0, sp_ns" : "=r" (result) );
 428:drivers/CMSIS/Include/cmsis_gcc.h ****   return(result);
 429:drivers/CMSIS/Include/cmsis_gcc.h **** }
 430:drivers/CMSIS/Include/cmsis_gcc.h **** 
 431:drivers/CMSIS/Include/cmsis_gcc.h **** 
 432:drivers/CMSIS/Include/cmsis_gcc.h **** /**
 433:drivers/CMSIS/Include/cmsis_gcc.h ****   \brief   Set Stack Pointer (non-secure)
 434:drivers/CMSIS/Include/cmsis_gcc.h ****   \details Assigns the given value to the non-secure Stack Pointer (SP) when in secure state.
 435:drivers/CMSIS/Include/cmsis_gcc.h ****   \param [in]    topOfStack  Stack Pointer value to set
 436:drivers/CMSIS/Include/cmsis_gcc.h ****  */
ARM GAS  C:\Users\mikal\AppData\Local\Temp\cctQ2Bzi.s 			page 22


 437:drivers/CMSIS/Include/cmsis_gcc.h **** __STATIC_FORCEINLINE void __TZ_set_SP_NS(uint32_t topOfStack)
 438:drivers/CMSIS/Include/cmsis_gcc.h **** {
 439:drivers/CMSIS/Include/cmsis_gcc.h ****   __ASM volatile ("MSR sp_ns, %0" : : "r" (topOfStack) : );
 440:drivers/CMSIS/Include/cmsis_gcc.h **** }
 441:drivers/CMSIS/Include/cmsis_gcc.h **** #endif
 442:drivers/CMSIS/Include/cmsis_gcc.h **** 
 443:drivers/CMSIS/Include/cmsis_gcc.h **** 
 444:drivers/CMSIS/Include/cmsis_gcc.h **** /**
 445:drivers/CMSIS/Include/cmsis_gcc.h ****   \brief   Get Priority Mask
 446:drivers/CMSIS/Include/cmsis_gcc.h ****   \details Returns the current state of the priority mask bit from the Priority Mask Register.
 447:drivers/CMSIS/Include/cmsis_gcc.h ****   \return               Priority Mask value
 448:drivers/CMSIS/Include/cmsis_gcc.h ****  */
 449:drivers/CMSIS/Include/cmsis_gcc.h **** __STATIC_FORCEINLINE uint32_t __get_PRIMASK(void)
 450:drivers/CMSIS/Include/cmsis_gcc.h **** {
 451:drivers/CMSIS/Include/cmsis_gcc.h ****   uint32_t result;
 452:drivers/CMSIS/Include/cmsis_gcc.h **** 
 453:drivers/CMSIS/Include/cmsis_gcc.h ****   __ASM volatile ("MRS %0, primask" : "=r" (result) :: "memory");
 454:drivers/CMSIS/Include/cmsis_gcc.h ****   return(result);
 455:drivers/CMSIS/Include/cmsis_gcc.h **** }
 456:drivers/CMSIS/Include/cmsis_gcc.h **** 
 457:drivers/CMSIS/Include/cmsis_gcc.h **** 
 458:drivers/CMSIS/Include/cmsis_gcc.h **** #if (defined (__ARM_FEATURE_CMSE ) && (__ARM_FEATURE_CMSE == 3))
 459:drivers/CMSIS/Include/cmsis_gcc.h **** /**
 460:drivers/CMSIS/Include/cmsis_gcc.h ****   \brief   Get Priority Mask (non-secure)
 461:drivers/CMSIS/Include/cmsis_gcc.h ****   \details Returns the current state of the non-secure priority mask bit from the Priority Mask Reg
 462:drivers/CMSIS/Include/cmsis_gcc.h ****   \return               Priority Mask value
 463:drivers/CMSIS/Include/cmsis_gcc.h ****  */
 464:drivers/CMSIS/Include/cmsis_gcc.h **** __STATIC_FORCEINLINE uint32_t __TZ_get_PRIMASK_NS(void)
 465:drivers/CMSIS/Include/cmsis_gcc.h **** {
 466:drivers/CMSIS/Include/cmsis_gcc.h ****   uint32_t result;
 467:drivers/CMSIS/Include/cmsis_gcc.h **** 
 468:drivers/CMSIS/Include/cmsis_gcc.h ****   __ASM volatile ("MRS %0, primask_ns" : "=r" (result) :: "memory");
 469:drivers/CMSIS/Include/cmsis_gcc.h ****   return(result);
 470:drivers/CMSIS/Include/cmsis_gcc.h **** }
 471:drivers/CMSIS/Include/cmsis_gcc.h **** #endif
 472:drivers/CMSIS/Include/cmsis_gcc.h **** 
 473:drivers/CMSIS/Include/cmsis_gcc.h **** 
 474:drivers/CMSIS/Include/cmsis_gcc.h **** /**
 475:drivers/CMSIS/Include/cmsis_gcc.h ****   \brief   Set Priority Mask
 476:drivers/CMSIS/Include/cmsis_gcc.h ****   \details Assigns the given value to the Priority Mask Register.
 477:drivers/CMSIS/Include/cmsis_gcc.h ****   \param [in]    priMask  Priority Mask
 478:drivers/CMSIS/Include/cmsis_gcc.h ****  */
 479:drivers/CMSIS/Include/cmsis_gcc.h **** __STATIC_FORCEINLINE void __set_PRIMASK(uint32_t priMask)
 480:drivers/CMSIS/Include/cmsis_gcc.h **** {
 481:drivers/CMSIS/Include/cmsis_gcc.h ****   __ASM volatile ("MSR primask, %0" : : "r" (priMask) : "memory");
 482:drivers/CMSIS/Include/cmsis_gcc.h **** }
 483:drivers/CMSIS/Include/cmsis_gcc.h **** 
 484:drivers/CMSIS/Include/cmsis_gcc.h **** 
 485:drivers/CMSIS/Include/cmsis_gcc.h **** #if (defined (__ARM_FEATURE_CMSE ) && (__ARM_FEATURE_CMSE == 3))
 486:drivers/CMSIS/Include/cmsis_gcc.h **** /**
 487:drivers/CMSIS/Include/cmsis_gcc.h ****   \brief   Set Priority Mask (non-secure)
 488:drivers/CMSIS/Include/cmsis_gcc.h ****   \details Assigns the given value to the non-secure Priority Mask Register when in secure state.
 489:drivers/CMSIS/Include/cmsis_gcc.h ****   \param [in]    priMask  Priority Mask
 490:drivers/CMSIS/Include/cmsis_gcc.h ****  */
 491:drivers/CMSIS/Include/cmsis_gcc.h **** __STATIC_FORCEINLINE void __TZ_set_PRIMASK_NS(uint32_t priMask)
 492:drivers/CMSIS/Include/cmsis_gcc.h **** {
 493:drivers/CMSIS/Include/cmsis_gcc.h ****   __ASM volatile ("MSR primask_ns, %0" : : "r" (priMask) : "memory");
ARM GAS  C:\Users\mikal\AppData\Local\Temp\cctQ2Bzi.s 			page 23


 494:drivers/CMSIS/Include/cmsis_gcc.h **** }
 495:drivers/CMSIS/Include/cmsis_gcc.h **** #endif
 496:drivers/CMSIS/Include/cmsis_gcc.h **** 
 497:drivers/CMSIS/Include/cmsis_gcc.h **** 
 498:drivers/CMSIS/Include/cmsis_gcc.h **** #if ((defined (__ARM_ARCH_7M__      ) && (__ARM_ARCH_7M__      == 1)) || \
 499:drivers/CMSIS/Include/cmsis_gcc.h ****      (defined (__ARM_ARCH_7EM__     ) && (__ARM_ARCH_7EM__     == 1)) || \
 500:drivers/CMSIS/Include/cmsis_gcc.h ****      (defined (__ARM_ARCH_8M_MAIN__ ) && (__ARM_ARCH_8M_MAIN__ == 1))    )
 501:drivers/CMSIS/Include/cmsis_gcc.h **** /**
 502:drivers/CMSIS/Include/cmsis_gcc.h ****   \brief   Enable FIQ
 503:drivers/CMSIS/Include/cmsis_gcc.h ****   \details Enables FIQ interrupts by clearing the F-bit in the CPSR.
 504:drivers/CMSIS/Include/cmsis_gcc.h ****            Can only be executed in Privileged modes.
 505:drivers/CMSIS/Include/cmsis_gcc.h ****  */
 506:drivers/CMSIS/Include/cmsis_gcc.h **** __STATIC_FORCEINLINE void __enable_fault_irq(void)
 507:drivers/CMSIS/Include/cmsis_gcc.h **** {
 508:drivers/CMSIS/Include/cmsis_gcc.h ****   __ASM volatile ("cpsie f" : : : "memory");
 509:drivers/CMSIS/Include/cmsis_gcc.h **** }
 510:drivers/CMSIS/Include/cmsis_gcc.h **** 
 511:drivers/CMSIS/Include/cmsis_gcc.h **** 
 512:drivers/CMSIS/Include/cmsis_gcc.h **** /**
 513:drivers/CMSIS/Include/cmsis_gcc.h ****   \brief   Disable FIQ
 514:drivers/CMSIS/Include/cmsis_gcc.h ****   \details Disables FIQ interrupts by setting the F-bit in the CPSR.
 515:drivers/CMSIS/Include/cmsis_gcc.h ****            Can only be executed in Privileged modes.
 516:drivers/CMSIS/Include/cmsis_gcc.h ****  */
 517:drivers/CMSIS/Include/cmsis_gcc.h **** __STATIC_FORCEINLINE void __disable_fault_irq(void)
 518:drivers/CMSIS/Include/cmsis_gcc.h **** {
 519:drivers/CMSIS/Include/cmsis_gcc.h ****   __ASM volatile ("cpsid f" : : : "memory");
 520:drivers/CMSIS/Include/cmsis_gcc.h **** }
 521:drivers/CMSIS/Include/cmsis_gcc.h **** 
 522:drivers/CMSIS/Include/cmsis_gcc.h **** 
 523:drivers/CMSIS/Include/cmsis_gcc.h **** /**
 524:drivers/CMSIS/Include/cmsis_gcc.h ****   \brief   Get Base Priority
 525:drivers/CMSIS/Include/cmsis_gcc.h ****   \details Returns the current value of the Base Priority register.
 526:drivers/CMSIS/Include/cmsis_gcc.h ****   \return               Base Priority register value
 527:drivers/CMSIS/Include/cmsis_gcc.h ****  */
 528:drivers/CMSIS/Include/cmsis_gcc.h **** __STATIC_FORCEINLINE uint32_t __get_BASEPRI(void)
 529:drivers/CMSIS/Include/cmsis_gcc.h **** {
 530:drivers/CMSIS/Include/cmsis_gcc.h ****   uint32_t result;
 531:drivers/CMSIS/Include/cmsis_gcc.h **** 
 532:drivers/CMSIS/Include/cmsis_gcc.h ****   __ASM volatile ("MRS %0, basepri" : "=r" (result) );
 533:drivers/CMSIS/Include/cmsis_gcc.h ****   return(result);
 534:drivers/CMSIS/Include/cmsis_gcc.h **** }
 535:drivers/CMSIS/Include/cmsis_gcc.h **** 
 536:drivers/CMSIS/Include/cmsis_gcc.h **** 
 537:drivers/CMSIS/Include/cmsis_gcc.h **** #if (defined (__ARM_FEATURE_CMSE ) && (__ARM_FEATURE_CMSE == 3))
 538:drivers/CMSIS/Include/cmsis_gcc.h **** /**
 539:drivers/CMSIS/Include/cmsis_gcc.h ****   \brief   Get Base Priority (non-secure)
 540:drivers/CMSIS/Include/cmsis_gcc.h ****   \details Returns the current value of the non-secure Base Priority register when in secure state.
 541:drivers/CMSIS/Include/cmsis_gcc.h ****   \return               Base Priority register value
 542:drivers/CMSIS/Include/cmsis_gcc.h ****  */
 543:drivers/CMSIS/Include/cmsis_gcc.h **** __STATIC_FORCEINLINE uint32_t __TZ_get_BASEPRI_NS(void)
 544:drivers/CMSIS/Include/cmsis_gcc.h **** {
 545:drivers/CMSIS/Include/cmsis_gcc.h ****   uint32_t result;
 546:drivers/CMSIS/Include/cmsis_gcc.h **** 
 547:drivers/CMSIS/Include/cmsis_gcc.h ****   __ASM volatile ("MRS %0, basepri_ns" : "=r" (result) );
 548:drivers/CMSIS/Include/cmsis_gcc.h ****   return(result);
 549:drivers/CMSIS/Include/cmsis_gcc.h **** }
 550:drivers/CMSIS/Include/cmsis_gcc.h **** #endif
ARM GAS  C:\Users\mikal\AppData\Local\Temp\cctQ2Bzi.s 			page 24


 551:drivers/CMSIS/Include/cmsis_gcc.h **** 
 552:drivers/CMSIS/Include/cmsis_gcc.h **** 
 553:drivers/CMSIS/Include/cmsis_gcc.h **** /**
 554:drivers/CMSIS/Include/cmsis_gcc.h ****   \brief   Set Base Priority
 555:drivers/CMSIS/Include/cmsis_gcc.h ****   \details Assigns the given value to the Base Priority register.
 556:drivers/CMSIS/Include/cmsis_gcc.h ****   \param [in]    basePri  Base Priority value to set
 557:drivers/CMSIS/Include/cmsis_gcc.h ****  */
 558:drivers/CMSIS/Include/cmsis_gcc.h **** __STATIC_FORCEINLINE void __set_BASEPRI(uint32_t basePri)
 559:drivers/CMSIS/Include/cmsis_gcc.h **** {
 560:drivers/CMSIS/Include/cmsis_gcc.h ****   __ASM volatile ("MSR basepri, %0" : : "r" (basePri) : "memory");
 561:drivers/CMSIS/Include/cmsis_gcc.h **** }
 562:drivers/CMSIS/Include/cmsis_gcc.h **** 
 563:drivers/CMSIS/Include/cmsis_gcc.h **** 
 564:drivers/CMSIS/Include/cmsis_gcc.h **** #if (defined (__ARM_FEATURE_CMSE ) && (__ARM_FEATURE_CMSE == 3))
 565:drivers/CMSIS/Include/cmsis_gcc.h **** /**
 566:drivers/CMSIS/Include/cmsis_gcc.h ****   \brief   Set Base Priority (non-secure)
 567:drivers/CMSIS/Include/cmsis_gcc.h ****   \details Assigns the given value to the non-secure Base Priority register when in secure state.
 568:drivers/CMSIS/Include/cmsis_gcc.h ****   \param [in]    basePri  Base Priority value to set
 569:drivers/CMSIS/Include/cmsis_gcc.h ****  */
 570:drivers/CMSIS/Include/cmsis_gcc.h **** __STATIC_FORCEINLINE void __TZ_set_BASEPRI_NS(uint32_t basePri)
 571:drivers/CMSIS/Include/cmsis_gcc.h **** {
 572:drivers/CMSIS/Include/cmsis_gcc.h ****   __ASM volatile ("MSR basepri_ns, %0" : : "r" (basePri) : "memory");
 573:drivers/CMSIS/Include/cmsis_gcc.h **** }
 574:drivers/CMSIS/Include/cmsis_gcc.h **** #endif
 575:drivers/CMSIS/Include/cmsis_gcc.h **** 
 576:drivers/CMSIS/Include/cmsis_gcc.h **** 
 577:drivers/CMSIS/Include/cmsis_gcc.h **** /**
 578:drivers/CMSIS/Include/cmsis_gcc.h ****   \brief   Set Base Priority with condition
 579:drivers/CMSIS/Include/cmsis_gcc.h ****   \details Assigns the given value to the Base Priority register only if BASEPRI masking is disable
 580:drivers/CMSIS/Include/cmsis_gcc.h ****            or the new value increases the BASEPRI priority level.
 581:drivers/CMSIS/Include/cmsis_gcc.h ****   \param [in]    basePri  Base Priority value to set
 582:drivers/CMSIS/Include/cmsis_gcc.h ****  */
 583:drivers/CMSIS/Include/cmsis_gcc.h **** __STATIC_FORCEINLINE void __set_BASEPRI_MAX(uint32_t basePri)
 584:drivers/CMSIS/Include/cmsis_gcc.h **** {
 585:drivers/CMSIS/Include/cmsis_gcc.h ****   __ASM volatile ("MSR basepri_max, %0" : : "r" (basePri) : "memory");
 586:drivers/CMSIS/Include/cmsis_gcc.h **** }
 587:drivers/CMSIS/Include/cmsis_gcc.h **** 
 588:drivers/CMSIS/Include/cmsis_gcc.h **** 
 589:drivers/CMSIS/Include/cmsis_gcc.h **** /**
 590:drivers/CMSIS/Include/cmsis_gcc.h ****   \brief   Get Fault Mask
 591:drivers/CMSIS/Include/cmsis_gcc.h ****   \details Returns the current value of the Fault Mask register.
 592:drivers/CMSIS/Include/cmsis_gcc.h ****   \return               Fault Mask register value
 593:drivers/CMSIS/Include/cmsis_gcc.h ****  */
 594:drivers/CMSIS/Include/cmsis_gcc.h **** __STATIC_FORCEINLINE uint32_t __get_FAULTMASK(void)
 595:drivers/CMSIS/Include/cmsis_gcc.h **** {
 596:drivers/CMSIS/Include/cmsis_gcc.h ****   uint32_t result;
 597:drivers/CMSIS/Include/cmsis_gcc.h **** 
 598:drivers/CMSIS/Include/cmsis_gcc.h ****   __ASM volatile ("MRS %0, faultmask" : "=r" (result) );
 599:drivers/CMSIS/Include/cmsis_gcc.h ****   return(result);
 600:drivers/CMSIS/Include/cmsis_gcc.h **** }
 601:drivers/CMSIS/Include/cmsis_gcc.h **** 
 602:drivers/CMSIS/Include/cmsis_gcc.h **** 
 603:drivers/CMSIS/Include/cmsis_gcc.h **** #if (defined (__ARM_FEATURE_CMSE ) && (__ARM_FEATURE_CMSE == 3))
 604:drivers/CMSIS/Include/cmsis_gcc.h **** /**
 605:drivers/CMSIS/Include/cmsis_gcc.h ****   \brief   Get Fault Mask (non-secure)
 606:drivers/CMSIS/Include/cmsis_gcc.h ****   \details Returns the current value of the non-secure Fault Mask register when in secure state.
 607:drivers/CMSIS/Include/cmsis_gcc.h ****   \return               Fault Mask register value
ARM GAS  C:\Users\mikal\AppData\Local\Temp\cctQ2Bzi.s 			page 25


 608:drivers/CMSIS/Include/cmsis_gcc.h ****  */
 609:drivers/CMSIS/Include/cmsis_gcc.h **** __STATIC_FORCEINLINE uint32_t __TZ_get_FAULTMASK_NS(void)
 610:drivers/CMSIS/Include/cmsis_gcc.h **** {
 611:drivers/CMSIS/Include/cmsis_gcc.h ****   uint32_t result;
 612:drivers/CMSIS/Include/cmsis_gcc.h **** 
 613:drivers/CMSIS/Include/cmsis_gcc.h ****   __ASM volatile ("MRS %0, faultmask_ns" : "=r" (result) );
 614:drivers/CMSIS/Include/cmsis_gcc.h ****   return(result);
 615:drivers/CMSIS/Include/cmsis_gcc.h **** }
 616:drivers/CMSIS/Include/cmsis_gcc.h **** #endif
 617:drivers/CMSIS/Include/cmsis_gcc.h **** 
 618:drivers/CMSIS/Include/cmsis_gcc.h **** 
 619:drivers/CMSIS/Include/cmsis_gcc.h **** /**
 620:drivers/CMSIS/Include/cmsis_gcc.h ****   \brief   Set Fault Mask
 621:drivers/CMSIS/Include/cmsis_gcc.h ****   \details Assigns the given value to the Fault Mask register.
 622:drivers/CMSIS/Include/cmsis_gcc.h ****   \param [in]    faultMask  Fault Mask value to set
 623:drivers/CMSIS/Include/cmsis_gcc.h ****  */
 624:drivers/CMSIS/Include/cmsis_gcc.h **** __STATIC_FORCEINLINE void __set_FAULTMASK(uint32_t faultMask)
 625:drivers/CMSIS/Include/cmsis_gcc.h **** {
 626:drivers/CMSIS/Include/cmsis_gcc.h ****   __ASM volatile ("MSR faultmask, %0" : : "r" (faultMask) : "memory");
 627:drivers/CMSIS/Include/cmsis_gcc.h **** }
 628:drivers/CMSIS/Include/cmsis_gcc.h **** 
 629:drivers/CMSIS/Include/cmsis_gcc.h **** 
 630:drivers/CMSIS/Include/cmsis_gcc.h **** #if (defined (__ARM_FEATURE_CMSE ) && (__ARM_FEATURE_CMSE == 3))
 631:drivers/CMSIS/Include/cmsis_gcc.h **** /**
 632:drivers/CMSIS/Include/cmsis_gcc.h ****   \brief   Set Fault Mask (non-secure)
 633:drivers/CMSIS/Include/cmsis_gcc.h ****   \details Assigns the given value to the non-secure Fault Mask register when in secure state.
 634:drivers/CMSIS/Include/cmsis_gcc.h ****   \param [in]    faultMask  Fault Mask value to set
 635:drivers/CMSIS/Include/cmsis_gcc.h ****  */
 636:drivers/CMSIS/Include/cmsis_gcc.h **** __STATIC_FORCEINLINE void __TZ_set_FAULTMASK_NS(uint32_t faultMask)
 637:drivers/CMSIS/Include/cmsis_gcc.h **** {
 638:drivers/CMSIS/Include/cmsis_gcc.h ****   __ASM volatile ("MSR faultmask_ns, %0" : : "r" (faultMask) : "memory");
 639:drivers/CMSIS/Include/cmsis_gcc.h **** }
 640:drivers/CMSIS/Include/cmsis_gcc.h **** #endif
 641:drivers/CMSIS/Include/cmsis_gcc.h **** 
 642:drivers/CMSIS/Include/cmsis_gcc.h **** #endif /* ((defined (__ARM_ARCH_7M__      ) && (__ARM_ARCH_7M__      == 1)) || \
 643:drivers/CMSIS/Include/cmsis_gcc.h ****            (defined (__ARM_ARCH_7EM__     ) && (__ARM_ARCH_7EM__     == 1)) || \
 644:drivers/CMSIS/Include/cmsis_gcc.h ****            (defined (__ARM_ARCH_8M_MAIN__ ) && (__ARM_ARCH_8M_MAIN__ == 1))    ) */
 645:drivers/CMSIS/Include/cmsis_gcc.h **** 
 646:drivers/CMSIS/Include/cmsis_gcc.h **** 
 647:drivers/CMSIS/Include/cmsis_gcc.h **** #if ((defined (__ARM_ARCH_8M_MAIN__ ) && (__ARM_ARCH_8M_MAIN__ == 1)) || \
 648:drivers/CMSIS/Include/cmsis_gcc.h ****      (defined (__ARM_ARCH_8M_BASE__ ) && (__ARM_ARCH_8M_BASE__ == 1))    )
 649:drivers/CMSIS/Include/cmsis_gcc.h **** 
 650:drivers/CMSIS/Include/cmsis_gcc.h **** /**
 651:drivers/CMSIS/Include/cmsis_gcc.h ****   \brief   Get Process Stack Pointer Limit
 652:drivers/CMSIS/Include/cmsis_gcc.h ****   Devices without ARMv8-M Main Extensions (i.e. Cortex-M23) lack the non-secure
 653:drivers/CMSIS/Include/cmsis_gcc.h ****   Stack Pointer Limit register hence zero is returned always in non-secure
 654:drivers/CMSIS/Include/cmsis_gcc.h ****   mode.
 655:drivers/CMSIS/Include/cmsis_gcc.h ****   
 656:drivers/CMSIS/Include/cmsis_gcc.h ****   \details Returns the current value of the Process Stack Pointer Limit (PSPLIM).
 657:drivers/CMSIS/Include/cmsis_gcc.h ****   \return               PSPLIM Register value
 658:drivers/CMSIS/Include/cmsis_gcc.h ****  */
 659:drivers/CMSIS/Include/cmsis_gcc.h **** __STATIC_FORCEINLINE uint32_t __get_PSPLIM(void)
 660:drivers/CMSIS/Include/cmsis_gcc.h **** {
 661:drivers/CMSIS/Include/cmsis_gcc.h **** #if (!(defined (__ARM_ARCH_8M_MAIN__ ) && (__ARM_ARCH_8M_MAIN__ == 1)) && \
 662:drivers/CMSIS/Include/cmsis_gcc.h ****     (!defined (__ARM_FEATURE_CMSE) || (__ARM_FEATURE_CMSE < 3)))
 663:drivers/CMSIS/Include/cmsis_gcc.h ****     // without main extensions, the non-secure PSPLIM is RAZ/WI
 664:drivers/CMSIS/Include/cmsis_gcc.h ****   return 0U;
ARM GAS  C:\Users\mikal\AppData\Local\Temp\cctQ2Bzi.s 			page 26


 665:drivers/CMSIS/Include/cmsis_gcc.h **** #else
 666:drivers/CMSIS/Include/cmsis_gcc.h ****   uint32_t result;
 667:drivers/CMSIS/Include/cmsis_gcc.h ****   __ASM volatile ("MRS %0, psplim"  : "=r" (result) );
 668:drivers/CMSIS/Include/cmsis_gcc.h ****   return result;
 669:drivers/CMSIS/Include/cmsis_gcc.h **** #endif
 670:drivers/CMSIS/Include/cmsis_gcc.h **** }
 671:drivers/CMSIS/Include/cmsis_gcc.h **** 
 672:drivers/CMSIS/Include/cmsis_gcc.h **** #if (defined (__ARM_FEATURE_CMSE) && (__ARM_FEATURE_CMSE == 3))
 673:drivers/CMSIS/Include/cmsis_gcc.h **** /**
 674:drivers/CMSIS/Include/cmsis_gcc.h ****   \brief   Get Process Stack Pointer Limit (non-secure)
 675:drivers/CMSIS/Include/cmsis_gcc.h ****   Devices without ARMv8-M Main Extensions (i.e. Cortex-M23) lack the non-secure
 676:drivers/CMSIS/Include/cmsis_gcc.h ****   Stack Pointer Limit register hence zero is returned always.
 677:drivers/CMSIS/Include/cmsis_gcc.h **** 
 678:drivers/CMSIS/Include/cmsis_gcc.h ****   \details Returns the current value of the non-secure Process Stack Pointer Limit (PSPLIM) when in
 679:drivers/CMSIS/Include/cmsis_gcc.h ****   \return               PSPLIM Register value
 680:drivers/CMSIS/Include/cmsis_gcc.h ****  */
 681:drivers/CMSIS/Include/cmsis_gcc.h **** __STATIC_FORCEINLINE uint32_t __TZ_get_PSPLIM_NS(void)
 682:drivers/CMSIS/Include/cmsis_gcc.h **** {
 683:drivers/CMSIS/Include/cmsis_gcc.h **** #if (!(defined (__ARM_ARCH_8M_MAIN__ ) && (__ARM_ARCH_8M_MAIN__ == 1)))
 684:drivers/CMSIS/Include/cmsis_gcc.h ****   // without main extensions, the non-secure PSPLIM is RAZ/WI
 685:drivers/CMSIS/Include/cmsis_gcc.h ****   return 0U;
 686:drivers/CMSIS/Include/cmsis_gcc.h **** #else
 687:drivers/CMSIS/Include/cmsis_gcc.h ****   uint32_t result;
 688:drivers/CMSIS/Include/cmsis_gcc.h ****   __ASM volatile ("MRS %0, psplim_ns"  : "=r" (result) );
 689:drivers/CMSIS/Include/cmsis_gcc.h ****   return result;
 690:drivers/CMSIS/Include/cmsis_gcc.h **** #endif
 691:drivers/CMSIS/Include/cmsis_gcc.h **** }
 692:drivers/CMSIS/Include/cmsis_gcc.h **** #endif
 693:drivers/CMSIS/Include/cmsis_gcc.h **** 
 694:drivers/CMSIS/Include/cmsis_gcc.h **** 
 695:drivers/CMSIS/Include/cmsis_gcc.h **** /**
 696:drivers/CMSIS/Include/cmsis_gcc.h ****   \brief   Set Process Stack Pointer Limit
 697:drivers/CMSIS/Include/cmsis_gcc.h ****   Devices without ARMv8-M Main Extensions (i.e. Cortex-M23) lack the non-secure
 698:drivers/CMSIS/Include/cmsis_gcc.h ****   Stack Pointer Limit register hence the write is silently ignored in non-secure
 699:drivers/CMSIS/Include/cmsis_gcc.h ****   mode.
 700:drivers/CMSIS/Include/cmsis_gcc.h ****   
 701:drivers/CMSIS/Include/cmsis_gcc.h ****   \details Assigns the given value to the Process Stack Pointer Limit (PSPLIM).
 702:drivers/CMSIS/Include/cmsis_gcc.h ****   \param [in]    ProcStackPtrLimit  Process Stack Pointer Limit value to set
 703:drivers/CMSIS/Include/cmsis_gcc.h ****  */
 704:drivers/CMSIS/Include/cmsis_gcc.h **** __STATIC_FORCEINLINE void __set_PSPLIM(uint32_t ProcStackPtrLimit)
 705:drivers/CMSIS/Include/cmsis_gcc.h **** {
 706:drivers/CMSIS/Include/cmsis_gcc.h **** #if (!(defined (__ARM_ARCH_8M_MAIN__ ) && (__ARM_ARCH_8M_MAIN__ == 1)) && \
 707:drivers/CMSIS/Include/cmsis_gcc.h ****     (!defined (__ARM_FEATURE_CMSE) || (__ARM_FEATURE_CMSE < 3)))
 708:drivers/CMSIS/Include/cmsis_gcc.h ****   // without main extensions, the non-secure PSPLIM is RAZ/WI
 709:drivers/CMSIS/Include/cmsis_gcc.h ****   (void)ProcStackPtrLimit;
 710:drivers/CMSIS/Include/cmsis_gcc.h **** #else
 711:drivers/CMSIS/Include/cmsis_gcc.h ****   __ASM volatile ("MSR psplim, %0" : : "r" (ProcStackPtrLimit));
 712:drivers/CMSIS/Include/cmsis_gcc.h **** #endif
 713:drivers/CMSIS/Include/cmsis_gcc.h **** }
 714:drivers/CMSIS/Include/cmsis_gcc.h **** 
 715:drivers/CMSIS/Include/cmsis_gcc.h **** 
 716:drivers/CMSIS/Include/cmsis_gcc.h **** #if (defined (__ARM_FEATURE_CMSE  ) && (__ARM_FEATURE_CMSE   == 3))
 717:drivers/CMSIS/Include/cmsis_gcc.h **** /**
 718:drivers/CMSIS/Include/cmsis_gcc.h ****   \brief   Set Process Stack Pointer (non-secure)
 719:drivers/CMSIS/Include/cmsis_gcc.h ****   Devices without ARMv8-M Main Extensions (i.e. Cortex-M23) lack the non-secure
 720:drivers/CMSIS/Include/cmsis_gcc.h ****   Stack Pointer Limit register hence the write is silently ignored.
 721:drivers/CMSIS/Include/cmsis_gcc.h **** 
ARM GAS  C:\Users\mikal\AppData\Local\Temp\cctQ2Bzi.s 			page 27


 722:drivers/CMSIS/Include/cmsis_gcc.h ****   \details Assigns the given value to the non-secure Process Stack Pointer Limit (PSPLIM) when in s
 723:drivers/CMSIS/Include/cmsis_gcc.h ****   \param [in]    ProcStackPtrLimit  Process Stack Pointer Limit value to set
 724:drivers/CMSIS/Include/cmsis_gcc.h ****  */
 725:drivers/CMSIS/Include/cmsis_gcc.h **** __STATIC_FORCEINLINE void __TZ_set_PSPLIM_NS(uint32_t ProcStackPtrLimit)
 726:drivers/CMSIS/Include/cmsis_gcc.h **** {
 727:drivers/CMSIS/Include/cmsis_gcc.h **** #if (!(defined (__ARM_ARCH_8M_MAIN__ ) && (__ARM_ARCH_8M_MAIN__ == 1)))
 728:drivers/CMSIS/Include/cmsis_gcc.h ****   // without main extensions, the non-secure PSPLIM is RAZ/WI
 729:drivers/CMSIS/Include/cmsis_gcc.h ****   (void)ProcStackPtrLimit;
 730:drivers/CMSIS/Include/cmsis_gcc.h **** #else
 731:drivers/CMSIS/Include/cmsis_gcc.h ****   __ASM volatile ("MSR psplim_ns, %0\n" : : "r" (ProcStackPtrLimit));
 732:drivers/CMSIS/Include/cmsis_gcc.h **** #endif
 733:drivers/CMSIS/Include/cmsis_gcc.h **** }
 734:drivers/CMSIS/Include/cmsis_gcc.h **** #endif
 735:drivers/CMSIS/Include/cmsis_gcc.h **** 
 736:drivers/CMSIS/Include/cmsis_gcc.h **** 
 737:drivers/CMSIS/Include/cmsis_gcc.h **** /**
 738:drivers/CMSIS/Include/cmsis_gcc.h ****   \brief   Get Main Stack Pointer Limit
 739:drivers/CMSIS/Include/cmsis_gcc.h ****   Devices without ARMv8-M Main Extensions (i.e. Cortex-M23) lack the non-secure
 740:drivers/CMSIS/Include/cmsis_gcc.h ****   Stack Pointer Limit register hence zero is returned always in non-secure
 741:drivers/CMSIS/Include/cmsis_gcc.h ****   mode.
 742:drivers/CMSIS/Include/cmsis_gcc.h **** 
 743:drivers/CMSIS/Include/cmsis_gcc.h ****   \details Returns the current value of the Main Stack Pointer Limit (MSPLIM).
 744:drivers/CMSIS/Include/cmsis_gcc.h ****   \return               MSPLIM Register value
 745:drivers/CMSIS/Include/cmsis_gcc.h ****  */
 746:drivers/CMSIS/Include/cmsis_gcc.h **** __STATIC_FORCEINLINE uint32_t __get_MSPLIM(void)
 747:drivers/CMSIS/Include/cmsis_gcc.h **** {
 748:drivers/CMSIS/Include/cmsis_gcc.h **** #if (!(defined (__ARM_ARCH_8M_MAIN__ ) && (__ARM_ARCH_8M_MAIN__ == 1)) && \
 749:drivers/CMSIS/Include/cmsis_gcc.h ****     (!defined (__ARM_FEATURE_CMSE) || (__ARM_FEATURE_CMSE < 3)))
 750:drivers/CMSIS/Include/cmsis_gcc.h ****   // without main extensions, the non-secure MSPLIM is RAZ/WI
 751:drivers/CMSIS/Include/cmsis_gcc.h ****   return 0U;
 752:drivers/CMSIS/Include/cmsis_gcc.h **** #else
 753:drivers/CMSIS/Include/cmsis_gcc.h ****   uint32_t result;
 754:drivers/CMSIS/Include/cmsis_gcc.h ****   __ASM volatile ("MRS %0, msplim" : "=r" (result) );
 755:drivers/CMSIS/Include/cmsis_gcc.h ****   return result;
 756:drivers/CMSIS/Include/cmsis_gcc.h **** #endif
 757:drivers/CMSIS/Include/cmsis_gcc.h **** }
 758:drivers/CMSIS/Include/cmsis_gcc.h **** 
 759:drivers/CMSIS/Include/cmsis_gcc.h **** 
 760:drivers/CMSIS/Include/cmsis_gcc.h **** #if (defined (__ARM_FEATURE_CMSE  ) && (__ARM_FEATURE_CMSE   == 3))
 761:drivers/CMSIS/Include/cmsis_gcc.h **** /**
 762:drivers/CMSIS/Include/cmsis_gcc.h ****   \brief   Get Main Stack Pointer Limit (non-secure)
 763:drivers/CMSIS/Include/cmsis_gcc.h ****   Devices without ARMv8-M Main Extensions (i.e. Cortex-M23) lack the non-secure
 764:drivers/CMSIS/Include/cmsis_gcc.h ****   Stack Pointer Limit register hence zero is returned always.
 765:drivers/CMSIS/Include/cmsis_gcc.h **** 
 766:drivers/CMSIS/Include/cmsis_gcc.h ****   \details Returns the current value of the non-secure Main Stack Pointer Limit(MSPLIM) when in sec
 767:drivers/CMSIS/Include/cmsis_gcc.h ****   \return               MSPLIM Register value
 768:drivers/CMSIS/Include/cmsis_gcc.h ****  */
 769:drivers/CMSIS/Include/cmsis_gcc.h **** __STATIC_FORCEINLINE uint32_t __TZ_get_MSPLIM_NS(void)
 770:drivers/CMSIS/Include/cmsis_gcc.h **** {
 771:drivers/CMSIS/Include/cmsis_gcc.h **** #if (!(defined (__ARM_ARCH_8M_MAIN__ ) && (__ARM_ARCH_8M_MAIN__ == 1)))
 772:drivers/CMSIS/Include/cmsis_gcc.h ****   // without main extensions, the non-secure MSPLIM is RAZ/WI
 773:drivers/CMSIS/Include/cmsis_gcc.h ****   return 0U;
 774:drivers/CMSIS/Include/cmsis_gcc.h **** #else
 775:drivers/CMSIS/Include/cmsis_gcc.h ****   uint32_t result;
 776:drivers/CMSIS/Include/cmsis_gcc.h ****   __ASM volatile ("MRS %0, msplim_ns" : "=r" (result) );
 777:drivers/CMSIS/Include/cmsis_gcc.h ****   return result;
 778:drivers/CMSIS/Include/cmsis_gcc.h **** #endif
ARM GAS  C:\Users\mikal\AppData\Local\Temp\cctQ2Bzi.s 			page 28


 779:drivers/CMSIS/Include/cmsis_gcc.h **** }
 780:drivers/CMSIS/Include/cmsis_gcc.h **** #endif
 781:drivers/CMSIS/Include/cmsis_gcc.h **** 
 782:drivers/CMSIS/Include/cmsis_gcc.h **** 
 783:drivers/CMSIS/Include/cmsis_gcc.h **** /**
 784:drivers/CMSIS/Include/cmsis_gcc.h ****   \brief   Set Main Stack Pointer Limit
 785:drivers/CMSIS/Include/cmsis_gcc.h ****   Devices without ARMv8-M Main Extensions (i.e. Cortex-M23) lack the non-secure
 786:drivers/CMSIS/Include/cmsis_gcc.h ****   Stack Pointer Limit register hence the write is silently ignored in non-secure
 787:drivers/CMSIS/Include/cmsis_gcc.h ****   mode.
 788:drivers/CMSIS/Include/cmsis_gcc.h **** 
 789:drivers/CMSIS/Include/cmsis_gcc.h ****   \details Assigns the given value to the Main Stack Pointer Limit (MSPLIM).
 790:drivers/CMSIS/Include/cmsis_gcc.h ****   \param [in]    MainStackPtrLimit  Main Stack Pointer Limit value to set
 791:drivers/CMSIS/Include/cmsis_gcc.h ****  */
 792:drivers/CMSIS/Include/cmsis_gcc.h **** __STATIC_FORCEINLINE void __set_MSPLIM(uint32_t MainStackPtrLimit)
 793:drivers/CMSIS/Include/cmsis_gcc.h **** {
 794:drivers/CMSIS/Include/cmsis_gcc.h **** #if (!(defined (__ARM_ARCH_8M_MAIN__ ) && (__ARM_ARCH_8M_MAIN__ == 1)) && \
 795:drivers/CMSIS/Include/cmsis_gcc.h ****     (!defined (__ARM_FEATURE_CMSE) || (__ARM_FEATURE_CMSE < 3)))
 796:drivers/CMSIS/Include/cmsis_gcc.h ****   // without main extensions, the non-secure MSPLIM is RAZ/WI
 797:drivers/CMSIS/Include/cmsis_gcc.h ****   (void)MainStackPtrLimit;
 798:drivers/CMSIS/Include/cmsis_gcc.h **** #else
 799:drivers/CMSIS/Include/cmsis_gcc.h ****   __ASM volatile ("MSR msplim, %0" : : "r" (MainStackPtrLimit));
 800:drivers/CMSIS/Include/cmsis_gcc.h **** #endif
 801:drivers/CMSIS/Include/cmsis_gcc.h **** }
 802:drivers/CMSIS/Include/cmsis_gcc.h **** 
 803:drivers/CMSIS/Include/cmsis_gcc.h **** 
 804:drivers/CMSIS/Include/cmsis_gcc.h **** #if (defined (__ARM_FEATURE_CMSE  ) && (__ARM_FEATURE_CMSE   == 3))
 805:drivers/CMSIS/Include/cmsis_gcc.h **** /**
 806:drivers/CMSIS/Include/cmsis_gcc.h ****   \brief   Set Main Stack Pointer Limit (non-secure)
 807:drivers/CMSIS/Include/cmsis_gcc.h ****   Devices without ARMv8-M Main Extensions (i.e. Cortex-M23) lack the non-secure
 808:drivers/CMSIS/Include/cmsis_gcc.h ****   Stack Pointer Limit register hence the write is silently ignored.
 809:drivers/CMSIS/Include/cmsis_gcc.h **** 
 810:drivers/CMSIS/Include/cmsis_gcc.h ****   \details Assigns the given value to the non-secure Main Stack Pointer Limit (MSPLIM) when in secu
 811:drivers/CMSIS/Include/cmsis_gcc.h ****   \param [in]    MainStackPtrLimit  Main Stack Pointer value to set
 812:drivers/CMSIS/Include/cmsis_gcc.h ****  */
 813:drivers/CMSIS/Include/cmsis_gcc.h **** __STATIC_FORCEINLINE void __TZ_set_MSPLIM_NS(uint32_t MainStackPtrLimit)
 814:drivers/CMSIS/Include/cmsis_gcc.h **** {
 815:drivers/CMSIS/Include/cmsis_gcc.h **** #if (!(defined (__ARM_ARCH_8M_MAIN__ ) && (__ARM_ARCH_8M_MAIN__ == 1)))
 816:drivers/CMSIS/Include/cmsis_gcc.h ****   // without main extensions, the non-secure MSPLIM is RAZ/WI
 817:drivers/CMSIS/Include/cmsis_gcc.h ****   (void)MainStackPtrLimit;
 818:drivers/CMSIS/Include/cmsis_gcc.h **** #else
 819:drivers/CMSIS/Include/cmsis_gcc.h ****   __ASM volatile ("MSR msplim_ns, %0" : : "r" (MainStackPtrLimit));
 820:drivers/CMSIS/Include/cmsis_gcc.h **** #endif
 821:drivers/CMSIS/Include/cmsis_gcc.h **** }
 822:drivers/CMSIS/Include/cmsis_gcc.h **** #endif
 823:drivers/CMSIS/Include/cmsis_gcc.h **** 
 824:drivers/CMSIS/Include/cmsis_gcc.h **** #endif /* ((defined (__ARM_ARCH_8M_MAIN__ ) && (__ARM_ARCH_8M_MAIN__ == 1)) || \
 825:drivers/CMSIS/Include/cmsis_gcc.h ****            (defined (__ARM_ARCH_8M_BASE__ ) && (__ARM_ARCH_8M_BASE__ == 1))    ) */
 826:drivers/CMSIS/Include/cmsis_gcc.h **** 
 827:drivers/CMSIS/Include/cmsis_gcc.h **** 
 828:drivers/CMSIS/Include/cmsis_gcc.h **** /**
 829:drivers/CMSIS/Include/cmsis_gcc.h ****   \brief   Get FPSCR
 830:drivers/CMSIS/Include/cmsis_gcc.h ****   \details Returns the current value of the Floating Point Status/Control register.
 831:drivers/CMSIS/Include/cmsis_gcc.h ****   \return               Floating Point Status/Control register value
 832:drivers/CMSIS/Include/cmsis_gcc.h ****  */
 833:drivers/CMSIS/Include/cmsis_gcc.h **** __STATIC_FORCEINLINE uint32_t __get_FPSCR(void)
 834:drivers/CMSIS/Include/cmsis_gcc.h **** {
 835:drivers/CMSIS/Include/cmsis_gcc.h **** #if ((defined (__FPU_PRESENT) && (__FPU_PRESENT == 1U)) && \
ARM GAS  C:\Users\mikal\AppData\Local\Temp\cctQ2Bzi.s 			page 29


 836:drivers/CMSIS/Include/cmsis_gcc.h ****      (defined (__FPU_USED   ) && (__FPU_USED    == 1U))     )
 837:drivers/CMSIS/Include/cmsis_gcc.h **** #if __has_builtin(__builtin_arm_get_fpscr) 
 838:drivers/CMSIS/Include/cmsis_gcc.h **** // Re-enable using built-in when GCC has been fixed
 839:drivers/CMSIS/Include/cmsis_gcc.h **** // || (__GNUC__ > 7) || (__GNUC__ == 7 && __GNUC_MINOR__ >= 2)
 840:drivers/CMSIS/Include/cmsis_gcc.h ****   /* see https://gcc.gnu.org/ml/gcc-patches/2017-04/msg00443.html */
 841:drivers/CMSIS/Include/cmsis_gcc.h ****   return __builtin_arm_get_fpscr();
 842:drivers/CMSIS/Include/cmsis_gcc.h **** #else
 843:drivers/CMSIS/Include/cmsis_gcc.h ****   uint32_t result;
 844:drivers/CMSIS/Include/cmsis_gcc.h **** 
 845:drivers/CMSIS/Include/cmsis_gcc.h ****   __ASM volatile ("VMRS %0, fpscr" : "=r" (result) );
 846:drivers/CMSIS/Include/cmsis_gcc.h ****   return(result);
 847:drivers/CMSIS/Include/cmsis_gcc.h **** #endif
 848:drivers/CMSIS/Include/cmsis_gcc.h **** #else
 849:drivers/CMSIS/Include/cmsis_gcc.h ****   return(0U);
 850:drivers/CMSIS/Include/cmsis_gcc.h **** #endif
 851:drivers/CMSIS/Include/cmsis_gcc.h **** }
 852:drivers/CMSIS/Include/cmsis_gcc.h **** 
 853:drivers/CMSIS/Include/cmsis_gcc.h **** 
 854:drivers/CMSIS/Include/cmsis_gcc.h **** /**
 855:drivers/CMSIS/Include/cmsis_gcc.h ****   \brief   Set FPSCR
 856:drivers/CMSIS/Include/cmsis_gcc.h ****   \details Assigns the given value to the Floating Point Status/Control register.
 857:drivers/CMSIS/Include/cmsis_gcc.h ****   \param [in]    fpscr  Floating Point Status/Control value to set
 858:drivers/CMSIS/Include/cmsis_gcc.h ****  */
 859:drivers/CMSIS/Include/cmsis_gcc.h **** __STATIC_FORCEINLINE void __set_FPSCR(uint32_t fpscr)
 860:drivers/CMSIS/Include/cmsis_gcc.h **** {
 861:drivers/CMSIS/Include/cmsis_gcc.h **** #if ((defined (__FPU_PRESENT) && (__FPU_PRESENT == 1U)) && \
 862:drivers/CMSIS/Include/cmsis_gcc.h ****      (defined (__FPU_USED   ) && (__FPU_USED    == 1U))     )
 863:drivers/CMSIS/Include/cmsis_gcc.h **** #if __has_builtin(__builtin_arm_set_fpscr)
 864:drivers/CMSIS/Include/cmsis_gcc.h **** // Re-enable using built-in when GCC has been fixed
 865:drivers/CMSIS/Include/cmsis_gcc.h **** // || (__GNUC__ > 7) || (__GNUC__ == 7 && __GNUC_MINOR__ >= 2)
 866:drivers/CMSIS/Include/cmsis_gcc.h ****   /* see https://gcc.gnu.org/ml/gcc-patches/2017-04/msg00443.html */
 867:drivers/CMSIS/Include/cmsis_gcc.h ****   __builtin_arm_set_fpscr(fpscr);
 868:drivers/CMSIS/Include/cmsis_gcc.h **** #else
 869:drivers/CMSIS/Include/cmsis_gcc.h ****   __ASM volatile ("VMSR fpscr, %0" : : "r" (fpscr) : "vfpcc", "memory");
 870:drivers/CMSIS/Include/cmsis_gcc.h **** #endif
 871:drivers/CMSIS/Include/cmsis_gcc.h **** #else
 872:drivers/CMSIS/Include/cmsis_gcc.h ****   (void)fpscr;
 873:drivers/CMSIS/Include/cmsis_gcc.h **** #endif
 874:drivers/CMSIS/Include/cmsis_gcc.h **** }
 875:drivers/CMSIS/Include/cmsis_gcc.h **** 
 876:drivers/CMSIS/Include/cmsis_gcc.h **** 
 877:drivers/CMSIS/Include/cmsis_gcc.h **** /*@} end of CMSIS_Core_RegAccFunctions */
 878:drivers/CMSIS/Include/cmsis_gcc.h **** 
 879:drivers/CMSIS/Include/cmsis_gcc.h **** 
 880:drivers/CMSIS/Include/cmsis_gcc.h **** /* ##########################  Core Instruction Access  ######################### */
 881:drivers/CMSIS/Include/cmsis_gcc.h **** /** \defgroup CMSIS_Core_InstructionInterface CMSIS Core Instruction Interface
 882:drivers/CMSIS/Include/cmsis_gcc.h ****   Access to dedicated instructions
 883:drivers/CMSIS/Include/cmsis_gcc.h ****   @{
 884:drivers/CMSIS/Include/cmsis_gcc.h **** */
 885:drivers/CMSIS/Include/cmsis_gcc.h **** 
 886:drivers/CMSIS/Include/cmsis_gcc.h **** /* Define macros for porting to both thumb1 and thumb2.
 887:drivers/CMSIS/Include/cmsis_gcc.h ****  * For thumb1, use low register (r0-r7), specified by constraint "l"
 888:drivers/CMSIS/Include/cmsis_gcc.h ****  * Otherwise, use general registers, specified by constraint "r" */
 889:drivers/CMSIS/Include/cmsis_gcc.h **** #if defined (__thumb__) && !defined (__thumb2__)
 890:drivers/CMSIS/Include/cmsis_gcc.h **** #define __CMSIS_GCC_OUT_REG(r) "=l" (r)
 891:drivers/CMSIS/Include/cmsis_gcc.h **** #define __CMSIS_GCC_RW_REG(r) "+l" (r)
 892:drivers/CMSIS/Include/cmsis_gcc.h **** #define __CMSIS_GCC_USE_REG(r) "l" (r)
ARM GAS  C:\Users\mikal\AppData\Local\Temp\cctQ2Bzi.s 			page 30


 893:drivers/CMSIS/Include/cmsis_gcc.h **** #else
 894:drivers/CMSIS/Include/cmsis_gcc.h **** #define __CMSIS_GCC_OUT_REG(r) "=r" (r)
 895:drivers/CMSIS/Include/cmsis_gcc.h **** #define __CMSIS_GCC_RW_REG(r) "+r" (r)
 896:drivers/CMSIS/Include/cmsis_gcc.h **** #define __CMSIS_GCC_USE_REG(r) "r" (r)
 897:drivers/CMSIS/Include/cmsis_gcc.h **** #endif
 898:drivers/CMSIS/Include/cmsis_gcc.h **** 
 899:drivers/CMSIS/Include/cmsis_gcc.h **** /**
 900:drivers/CMSIS/Include/cmsis_gcc.h ****   \brief   No Operation
 901:drivers/CMSIS/Include/cmsis_gcc.h ****   \details No Operation does nothing. This instruction can be used for code alignment purposes.
 902:drivers/CMSIS/Include/cmsis_gcc.h ****  */
 903:drivers/CMSIS/Include/cmsis_gcc.h **** #define __NOP()                             __ASM volatile ("nop")
 904:drivers/CMSIS/Include/cmsis_gcc.h **** 
 905:drivers/CMSIS/Include/cmsis_gcc.h **** /**
 906:drivers/CMSIS/Include/cmsis_gcc.h ****   \brief   Wait For Interrupt
 907:drivers/CMSIS/Include/cmsis_gcc.h ****   \details Wait For Interrupt is a hint instruction that suspends execution until one of a number o
 908:drivers/CMSIS/Include/cmsis_gcc.h ****  */
 909:drivers/CMSIS/Include/cmsis_gcc.h **** #define __WFI()                             __ASM volatile ("wfi")
 910:drivers/CMSIS/Include/cmsis_gcc.h **** 
 911:drivers/CMSIS/Include/cmsis_gcc.h **** 
 912:drivers/CMSIS/Include/cmsis_gcc.h **** /**
 913:drivers/CMSIS/Include/cmsis_gcc.h ****   \brief   Wait For Event
 914:drivers/CMSIS/Include/cmsis_gcc.h ****   \details Wait For Event is a hint instruction that permits the processor to enter
 915:drivers/CMSIS/Include/cmsis_gcc.h ****            a low-power state until one of a number of events occurs.
 916:drivers/CMSIS/Include/cmsis_gcc.h ****  */
 917:drivers/CMSIS/Include/cmsis_gcc.h **** #define __WFE()                             __ASM volatile ("wfe")
 918:drivers/CMSIS/Include/cmsis_gcc.h **** 
 919:drivers/CMSIS/Include/cmsis_gcc.h **** 
 920:drivers/CMSIS/Include/cmsis_gcc.h **** /**
 921:drivers/CMSIS/Include/cmsis_gcc.h ****   \brief   Send Event
 922:drivers/CMSIS/Include/cmsis_gcc.h ****   \details Send Event is a hint instruction. It causes an event to be signaled to the CPU.
 923:drivers/CMSIS/Include/cmsis_gcc.h ****  */
 924:drivers/CMSIS/Include/cmsis_gcc.h **** #define __SEV()                             __ASM volatile ("sev")
 925:drivers/CMSIS/Include/cmsis_gcc.h **** 
 926:drivers/CMSIS/Include/cmsis_gcc.h **** 
 927:drivers/CMSIS/Include/cmsis_gcc.h **** /**
 928:drivers/CMSIS/Include/cmsis_gcc.h ****   \brief   Instruction Synchronization Barrier
 929:drivers/CMSIS/Include/cmsis_gcc.h ****   \details Instruction Synchronization Barrier flushes the pipeline in the processor,
 930:drivers/CMSIS/Include/cmsis_gcc.h ****            so that all instructions following the ISB are fetched from cache or memory,
 931:drivers/CMSIS/Include/cmsis_gcc.h ****            after the instruction has been completed.
 932:drivers/CMSIS/Include/cmsis_gcc.h ****  */
 933:drivers/CMSIS/Include/cmsis_gcc.h **** __STATIC_FORCEINLINE void __ISB(void)
  52              		.loc 2 933 27 view .LVU7
  53              	.LBB11:
 934:drivers/CMSIS/Include/cmsis_gcc.h **** {
 935:drivers/CMSIS/Include/cmsis_gcc.h ****   __ASM volatile ("isb 0xF":::"memory");
  54              		.loc 2 935 3 view .LVU8
  55              		.syntax unified
  56              	@ 935 "drivers/CMSIS/Include/cmsis_gcc.h" 1
  57 000e BFF36F8F 		isb 0xF
  58              	@ 0 "" 2
  59              		.thumb
  60              		.syntax unified
  61              	.LBE11:
  62              	.LBE10:
 712:drivers/STM32L4xx_HAL_Driver/Src/stm32l4xx_hal_flash.c **** 
 713:drivers/STM32L4xx_HAL_Driver/Src/stm32l4xx_hal_flash.c ****   /* Program second word */
 714:drivers/STM32L4xx_HAL_Driver/Src/stm32l4xx_hal_flash.c ****   *(__IO uint32_t*)(Address+4U) = (uint32_t)(Data >> 32);
ARM GAS  C:\Users\mikal\AppData\Local\Temp\cctQ2Bzi.s 			page 31


  63              		.loc 1 714 3 view .LVU9
  64              		.loc 1 714 33 is_stmt 0 view .LVU10
  65 0012 4360     		str	r3, [r0, #4]
 715:drivers/STM32L4xx_HAL_Driver/Src/stm32l4xx_hal_flash.c **** }
  66              		.loc 1 715 1 view .LVU11
  67 0014 5DF8044B 		ldr	r4, [sp], #4
  68              	.LCFI1:
  69              		.cfi_restore 4
  70              		.cfi_def_cfa_offset 0
  71 0018 7047     		bx	lr
  72              	.L4:
  73 001a 00BF     		.align	2
  74              	.L3:
  75 001c 00200240 		.word	1073881088
  76              		.cfi_endproc
  77              	.LFE144:
  79              		.section	.text.FLASH_Program_Fast,"ax",%progbits
  80              		.align	1
  81              		.syntax unified
  82              		.thumb
  83              		.thumb_func
  84              		.fpu fpv4-sp-d16
  86              	FLASH_Program_Fast:
  87              	.LVL1:
  88              	.LFB145:
 716:drivers/STM32L4xx_HAL_Driver/Src/stm32l4xx_hal_flash.c **** 
 717:drivers/STM32L4xx_HAL_Driver/Src/stm32l4xx_hal_flash.c **** /**
 718:drivers/STM32L4xx_HAL_Driver/Src/stm32l4xx_hal_flash.c ****   * @brief  Fast program a row double-word (64-bit) at a specified address.
 719:drivers/STM32L4xx_HAL_Driver/Src/stm32l4xx_hal_flash.c ****   * @param  Address specifies the address to be programmed.
 720:drivers/STM32L4xx_HAL_Driver/Src/stm32l4xx_hal_flash.c ****   * @param  DataAddress specifies the address where the data are stored.
 721:drivers/STM32L4xx_HAL_Driver/Src/stm32l4xx_hal_flash.c ****   * @retval None
 722:drivers/STM32L4xx_HAL_Driver/Src/stm32l4xx_hal_flash.c ****   */
 723:drivers/STM32L4xx_HAL_Driver/Src/stm32l4xx_hal_flash.c **** static void FLASH_Program_Fast(uint32_t Address, uint32_t DataAddress)
 724:drivers/STM32L4xx_HAL_Driver/Src/stm32l4xx_hal_flash.c **** {
  89              		.loc 1 724 1 is_stmt 1 view -0
  90              		.cfi_startproc
  91              		@ args = 0, pretend = 0, frame = 0
  92              		@ frame_needed = 0, uses_anonymous_args = 0
  93              		@ link register save eliminated.
 725:drivers/STM32L4xx_HAL_Driver/Src/stm32l4xx_hal_flash.c ****   uint32_t primask_bit;
  94              		.loc 1 725 3 view .LVU13
 726:drivers/STM32L4xx_HAL_Driver/Src/stm32l4xx_hal_flash.c ****   uint8_t row_index = (2*FLASH_NB_DOUBLE_WORDS_IN_ROW);
  95              		.loc 1 726 3 view .LVU14
 727:drivers/STM32L4xx_HAL_Driver/Src/stm32l4xx_hal_flash.c ****   __IO uint32_t *dest_addr = (__IO uint32_t*)Address;
  96              		.loc 1 727 3 view .LVU15
 728:drivers/STM32L4xx_HAL_Driver/Src/stm32l4xx_hal_flash.c ****   __IO uint32_t *src_addr = (__IO uint32_t*)DataAddress;
  97              		.loc 1 728 3 view .LVU16
 729:drivers/STM32L4xx_HAL_Driver/Src/stm32l4xx_hal_flash.c **** 
 730:drivers/STM32L4xx_HAL_Driver/Src/stm32l4xx_hal_flash.c ****   /* Check the parameters */
 731:drivers/STM32L4xx_HAL_Driver/Src/stm32l4xx_hal_flash.c ****   assert_param(IS_FLASH_MAIN_MEM_ADDRESS(Address));
  98              		.loc 1 731 3 view .LVU17
 732:drivers/STM32L4xx_HAL_Driver/Src/stm32l4xx_hal_flash.c **** 
 733:drivers/STM32L4xx_HAL_Driver/Src/stm32l4xx_hal_flash.c ****   /* Set FSTPG bit */
 734:drivers/STM32L4xx_HAL_Driver/Src/stm32l4xx_hal_flash.c ****   SET_BIT(FLASH->CR, FLASH_CR_FSTPG);
  99              		.loc 1 734 3 view .LVU18
 100 0000 094A     		ldr	r2, .L7
 101 0002 5369     		ldr	r3, [r2, #20]
ARM GAS  C:\Users\mikal\AppData\Local\Temp\cctQ2Bzi.s 			page 32


 102 0004 43F48023 		orr	r3, r3, #262144
 103 0008 5361     		str	r3, [r2, #20]
 735:drivers/STM32L4xx_HAL_Driver/Src/stm32l4xx_hal_flash.c **** 
 736:drivers/STM32L4xx_HAL_Driver/Src/stm32l4xx_hal_flash.c ****   /* Disable interrupts to avoid any interruption during the loop */
 737:drivers/STM32L4xx_HAL_Driver/Src/stm32l4xx_hal_flash.c ****   primask_bit = __get_PRIMASK();
 104              		.loc 1 737 3 view .LVU19
 105              	.LBB12:
 106              	.LBI12:
 449:drivers/CMSIS/Include/cmsis_gcc.h **** {
 107              		.loc 2 449 31 view .LVU20
 108              	.LBB13:
 451:drivers/CMSIS/Include/cmsis_gcc.h **** 
 109              		.loc 2 451 3 view .LVU21
 453:drivers/CMSIS/Include/cmsis_gcc.h ****   return(result);
 110              		.loc 2 453 3 view .LVU22
 111              		.syntax unified
 112              	@ 453 "drivers/CMSIS/Include/cmsis_gcc.h" 1
 113 000a EFF3108C 		MRS ip, primask
 114              	@ 0 "" 2
 115              	.LVL2:
 454:drivers/CMSIS/Include/cmsis_gcc.h **** }
 116              		.loc 2 454 3 view .LVU23
 454:drivers/CMSIS/Include/cmsis_gcc.h **** }
 117              		.loc 2 454 3 is_stmt 0 view .LVU24
 118              		.thumb
 119              		.syntax unified
 120              	.LBE13:
 121              	.LBE12:
 738:drivers/STM32L4xx_HAL_Driver/Src/stm32l4xx_hal_flash.c ****   __disable_irq();
 122              		.loc 1 738 3 is_stmt 1 view .LVU25
 123              	.LBB14:
 124              	.LBI14:
 207:drivers/CMSIS/Include/cmsis_gcc.h **** {
 125              		.loc 2 207 27 view .LVU26
 126              	.LBB15:
 209:drivers/CMSIS/Include/cmsis_gcc.h **** }
 127              		.loc 2 209 3 view .LVU27
 128              		.syntax unified
 129              	@ 209 "drivers/CMSIS/Include/cmsis_gcc.h" 1
 130 000e 72B6     		cpsid i
 131              	@ 0 "" 2
 132              		.thumb
 133              		.syntax unified
 134              	.LBE15:
 135              	.LBE14:
 726:drivers/STM32L4xx_HAL_Driver/Src/stm32l4xx_hal_flash.c ****   __IO uint32_t *dest_addr = (__IO uint32_t*)Address;
 136              		.loc 1 726 11 is_stmt 0 view .LVU28
 137 0010 4023     		movs	r3, #64
 138              	.LVL3:
 139              	.L6:
 739:drivers/STM32L4xx_HAL_Driver/Src/stm32l4xx_hal_flash.c **** 
 740:drivers/STM32L4xx_HAL_Driver/Src/stm32l4xx_hal_flash.c ****   /* Program the double word of the row */
 741:drivers/STM32L4xx_HAL_Driver/Src/stm32l4xx_hal_flash.c ****   do
 140              		.loc 1 741 3 is_stmt 1 discriminator 1 view .LVU29
 742:drivers/STM32L4xx_HAL_Driver/Src/stm32l4xx_hal_flash.c ****   {
 743:drivers/STM32L4xx_HAL_Driver/Src/stm32l4xx_hal_flash.c ****     *dest_addr = *src_addr;
 141              		.loc 1 743 5 discriminator 1 view .LVU30
ARM GAS  C:\Users\mikal\AppData\Local\Temp\cctQ2Bzi.s 			page 33


 142              		.loc 1 743 18 is_stmt 0 discriminator 1 view .LVU31
 143 0012 51F8042B 		ldr	r2, [r1], #4
 144              	.LVL4:
 145              		.loc 1 743 16 discriminator 1 view .LVU32
 146 0016 40F8042B 		str	r2, [r0], #4
 147              	.LVL5:
 744:drivers/STM32L4xx_HAL_Driver/Src/stm32l4xx_hal_flash.c ****     dest_addr++;
 148              		.loc 1 744 5 is_stmt 1 discriminator 1 view .LVU33
 745:drivers/STM32L4xx_HAL_Driver/Src/stm32l4xx_hal_flash.c ****     src_addr++;
 149              		.loc 1 745 5 discriminator 1 view .LVU34
 746:drivers/STM32L4xx_HAL_Driver/Src/stm32l4xx_hal_flash.c ****     row_index--;
 150              		.loc 1 746 5 discriminator 1 view .LVU35
 151              		.loc 1 746 14 is_stmt 0 discriminator 1 view .LVU36
 152 001a 013B     		subs	r3, r3, #1
 153              	.LVL6:
 747:drivers/STM32L4xx_HAL_Driver/Src/stm32l4xx_hal_flash.c ****   } while (row_index != 0U);
 154              		.loc 1 747 11 is_stmt 1 discriminator 1 view .LVU37
 155              		.loc 1 747 3 is_stmt 0 discriminator 1 view .LVU38
 156 001c 13F0FF03 		ands	r3, r3, #255
 157              	.LVL7:
 158              		.loc 1 747 3 discriminator 1 view .LVU39
 159 0020 F7D1     		bne	.L6
 748:drivers/STM32L4xx_HAL_Driver/Src/stm32l4xx_hal_flash.c **** 
 749:drivers/STM32L4xx_HAL_Driver/Src/stm32l4xx_hal_flash.c ****   /* Re-enable the interrupts */
 750:drivers/STM32L4xx_HAL_Driver/Src/stm32l4xx_hal_flash.c ****   __set_PRIMASK(primask_bit);
 160              		.loc 1 750 3 is_stmt 1 view .LVU40
 161              	.LVL8:
 162              	.LBB16:
 163              	.LBI16:
 479:drivers/CMSIS/Include/cmsis_gcc.h **** {
 164              		.loc 2 479 27 view .LVU41
 165              	.LBB17:
 481:drivers/CMSIS/Include/cmsis_gcc.h **** }
 166              		.loc 2 481 3 view .LVU42
 167              		.syntax unified
 168              	@ 481 "drivers/CMSIS/Include/cmsis_gcc.h" 1
 169 0022 8CF31088 		MSR primask, ip
 170              	@ 0 "" 2
 171              	.LVL9:
 481:drivers/CMSIS/Include/cmsis_gcc.h **** }
 172              		.loc 2 481 3 is_stmt 0 view .LVU43
 173              		.thumb
 174              		.syntax unified
 175              	.LBE17:
 176              	.LBE16:
 751:drivers/STM32L4xx_HAL_Driver/Src/stm32l4xx_hal_flash.c **** }
 177              		.loc 1 751 1 view .LVU44
 178 0026 7047     		bx	lr
 179              	.L8:
 180              		.align	2
 181              	.L7:
 182 0028 00200240 		.word	1073881088
 183              		.cfi_endproc
 184              	.LFE145:
 186              		.section	.text.HAL_FLASH_Program_IT,"ax",%progbits
 187              		.align	1
 188              		.global	HAL_FLASH_Program_IT
ARM GAS  C:\Users\mikal\AppData\Local\Temp\cctQ2Bzi.s 			page 34


 189              		.syntax unified
 190              		.thumb
 191              		.thumb_func
 192              		.fpu fpv4-sp-d16
 194              	HAL_FLASH_Program_IT:
 195              	.LVL10:
 196              	.LFB133:
 254:drivers/STM32L4xx_HAL_Driver/Src/stm32l4xx_hal_flash.c ****   HAL_StatusTypeDef status = HAL_OK;
 197              		.loc 1 254 1 is_stmt 1 view -0
 198              		.cfi_startproc
 199              		@ args = 0, pretend = 0, frame = 0
 200              		@ frame_needed = 0, uses_anonymous_args = 0
 254:drivers/STM32L4xx_HAL_Driver/Src/stm32l4xx_hal_flash.c ****   HAL_StatusTypeDef status = HAL_OK;
 201              		.loc 1 254 1 is_stmt 0 view .LVU46
 202 0000 70B5     		push	{r4, r5, r6, lr}
 203              	.LCFI2:
 204              		.cfi_def_cfa_offset 16
 205              		.cfi_offset 4, -16
 206              		.cfi_offset 5, -12
 207              		.cfi_offset 6, -8
 208              		.cfi_offset 14, -4
 255:drivers/STM32L4xx_HAL_Driver/Src/stm32l4xx_hal_flash.c **** 
 209              		.loc 1 255 3 is_stmt 1 view .LVU47
 210              	.LVL11:
 258:drivers/STM32L4xx_HAL_Driver/Src/stm32l4xx_hal_flash.c **** 
 211              		.loc 1 258 3 view .LVU48
 261:drivers/STM32L4xx_HAL_Driver/Src/stm32l4xx_hal_flash.c **** 
 212              		.loc 1 261 3 view .LVU49
 261:drivers/STM32L4xx_HAL_Driver/Src/stm32l4xx_hal_flash.c **** 
 213              		.loc 1 261 3 view .LVU50
 214 0002 1E4D     		ldr	r5, .L22
 215 0004 2D78     		ldrb	r5, [r5]	@ zero_extendqisi2
 216 0006 012D     		cmp	r5, #1
 217 0008 36D0     		beq	.L16
 218 000a 0446     		mov	r4, r0
 219 000c 0846     		mov	r0, r1
 220              	.LVL12:
 261:drivers/STM32L4xx_HAL_Driver/Src/stm32l4xx_hal_flash.c **** 
 221              		.loc 1 261 3 discriminator 2 view .LVU51
 222 000e 1B4D     		ldr	r5, .L22
 223 0010 0121     		movs	r1, #1
 224              	.LVL13:
 261:drivers/STM32L4xx_HAL_Driver/Src/stm32l4xx_hal_flash.c **** 
 225              		.loc 1 261 3 is_stmt 0 discriminator 2 view .LVU52
 226 0012 2970     		strb	r1, [r5]
 261:drivers/STM32L4xx_HAL_Driver/Src/stm32l4xx_hal_flash.c **** 
 227              		.loc 1 261 3 is_stmt 1 discriminator 2 view .LVU53
 263:drivers/STM32L4xx_HAL_Driver/Src/stm32l4xx_hal_flash.c **** 
 228              		.loc 1 263 3 discriminator 2 view .LVU54
 263:drivers/STM32L4xx_HAL_Driver/Src/stm32l4xx_hal_flash.c **** 
 229              		.loc 1 263 20 is_stmt 0 discriminator 2 view .LVU55
 230 0014 0021     		movs	r1, #0
 231 0016 6960     		str	r1, [r5, #4]
 266:drivers/STM32L4xx_HAL_Driver/Src/stm32l4xx_hal_flash.c ****   {
 232              		.loc 1 266 3 is_stmt 1 discriminator 2 view .LVU56
 266:drivers/STM32L4xx_HAL_Driver/Src/stm32l4xx_hal_flash.c ****   {
 233              		.loc 1 266 6 is_stmt 0 discriminator 2 view .LVU57
ARM GAS  C:\Users\mikal\AppData\Local\Temp\cctQ2Bzi.s 			page 35


 234 0018 1949     		ldr	r1, .L22+4
 235 001a 0968     		ldr	r1, [r1]
 266:drivers/STM32L4xx_HAL_Driver/Src/stm32l4xx_hal_flash.c ****   {
 236              		.loc 1 266 5 discriminator 2 view .LVU58
 237 001c 11F4806F 		tst	r1, #1024
 238 0020 19D0     		beq	.L11
 269:drivers/STM32L4xx_HAL_Driver/Src/stm32l4xx_hal_flash.c ****     pFlash.CacheToReactivate = FLASH_CACHE_DCACHE_ENABLED;
 239              		.loc 1 269 5 is_stmt 1 view .LVU59
 240 0022 174D     		ldr	r5, .L22+4
 241 0024 2968     		ldr	r1, [r5]
 242 0026 21F48061 		bic	r1, r1, #1024
 243 002a 2960     		str	r1, [r5]
 270:drivers/STM32L4xx_HAL_Driver/Src/stm32l4xx_hal_flash.c ****   }
 244              		.loc 1 270 5 view .LVU60
 270:drivers/STM32L4xx_HAL_Driver/Src/stm32l4xx_hal_flash.c ****   }
 245              		.loc 1 270 30 is_stmt 0 view .LVU61
 246 002c 1349     		ldr	r1, .L22
 247 002e 0225     		movs	r5, #2
 248 0030 0D77     		strb	r5, [r1, #28]
 249              	.L12:
 278:drivers/STM32L4xx_HAL_Driver/Src/stm32l4xx_hal_flash.c ****   {
 250              		.loc 1 278 3 is_stmt 1 view .LVU62
 278:drivers/STM32L4xx_HAL_Driver/Src/stm32l4xx_hal_flash.c ****   {
 251              		.loc 1 278 5 is_stmt 0 view .LVU63
 252 0032 022C     		cmp	r4, #2
 253 0034 13D0     		beq	.L19
 284:drivers/STM32L4xx_HAL_Driver/Src/stm32l4xx_hal_flash.c ****   }
 254              		.loc 1 284 5 is_stmt 1 view .LVU64
 284:drivers/STM32L4xx_HAL_Driver/Src/stm32l4xx_hal_flash.c ****   }
 255              		.loc 1 284 29 is_stmt 0 view .LVU65
 256 0036 1149     		ldr	r1, .L22
 257 0038 0325     		movs	r5, #3
 258 003a 0D72     		strb	r5, [r1, #8]
 259              	.L14:
 286:drivers/STM32L4xx_HAL_Driver/Src/stm32l4xx_hal_flash.c **** 
 260              		.loc 1 286 3 is_stmt 1 view .LVU66
 286:drivers/STM32L4xx_HAL_Driver/Src/stm32l4xx_hal_flash.c **** 
 261              		.loc 1 286 18 is_stmt 0 view .LVU67
 262 003c 0F49     		ldr	r1, .L22
 263 003e C860     		str	r0, [r1, #12]
 289:drivers/STM32L4xx_HAL_Driver/Src/stm32l4xx_hal_flash.c **** 
 264              		.loc 1 289 3 is_stmt 1 view .LVU68
 289:drivers/STM32L4xx_HAL_Driver/Src/stm32l4xx_hal_flash.c **** 
 265              		.loc 1 289 3 view .LVU69
 289:drivers/STM32L4xx_HAL_Driver/Src/stm32l4xx_hal_flash.c **** 
 266              		.loc 1 289 3 view .LVU70
 289:drivers/STM32L4xx_HAL_Driver/Src/stm32l4xx_hal_flash.c **** 
 267              		.loc 1 289 3 view .LVU71
 268 0040 0F4E     		ldr	r6, .L22+4
 269 0042 7569     		ldr	r5, [r6, #20]
 270 0044 45F04075 		orr	r5, r5, #50331648
 271 0048 7561     		str	r5, [r6, #20]
 289:drivers/STM32L4xx_HAL_Driver/Src/stm32l4xx_hal_flash.c **** 
 272              		.loc 1 289 3 view .LVU72
 291:drivers/STM32L4xx_HAL_Driver/Src/stm32l4xx_hal_flash.c ****   {
 273              		.loc 1 291 3 view .LVU73
 291:drivers/STM32L4xx_HAL_Driver/Src/stm32l4xx_hal_flash.c ****   {
ARM GAS  C:\Users\mikal\AppData\Local\Temp\cctQ2Bzi.s 			page 36


 274              		.loc 1 291 5 is_stmt 0 view .LVU74
 275 004a 64B1     		cbz	r4, .L20
 296:drivers/STM32L4xx_HAL_Driver/Src/stm32l4xx_hal_flash.c ****   {
 276              		.loc 1 296 8 is_stmt 1 view .LVU75
 296:drivers/STM32L4xx_HAL_Driver/Src/stm32l4xx_hal_flash.c ****   {
 277              		.loc 1 296 51 is_stmt 0 view .LVU76
 278 004c 013C     		subs	r4, r4, #1
 279              	.LVL14:
 296:drivers/STM32L4xx_HAL_Driver/Src/stm32l4xx_hal_flash.c ****   {
 280              		.loc 1 296 10 view .LVU77
 281 004e 012C     		cmp	r4, #1
 282 0050 0DD9     		bls	.L21
 306:drivers/STM32L4xx_HAL_Driver/Src/stm32l4xx_hal_flash.c **** }
 283              		.loc 1 306 10 view .LVU78
 284 0052 0020     		movs	r0, #0
 285              	.LVL15:
 286              	.L10:
 307:drivers/STM32L4xx_HAL_Driver/Src/stm32l4xx_hal_flash.c **** 
 287              		.loc 1 307 1 view .LVU79
 288 0054 70BD     		pop	{r4, r5, r6, pc}
 289              	.LVL16:
 290              	.L11:
 274:drivers/STM32L4xx_HAL_Driver/Src/stm32l4xx_hal_flash.c ****   }
 291              		.loc 1 274 5 is_stmt 1 view .LVU80
 274:drivers/STM32L4xx_HAL_Driver/Src/stm32l4xx_hal_flash.c ****   }
 292              		.loc 1 274 30 is_stmt 0 view .LVU81
 293 0056 0949     		ldr	r1, .L22
 294 0058 0025     		movs	r5, #0
 295 005a 0D77     		strb	r5, [r1, #28]
 296 005c E9E7     		b	.L12
 297              	.L19:
 280:drivers/STM32L4xx_HAL_Driver/Src/stm32l4xx_hal_flash.c ****   }
 298              		.loc 1 280 5 is_stmt 1 view .LVU82
 280:drivers/STM32L4xx_HAL_Driver/Src/stm32l4xx_hal_flash.c ****   }
 299              		.loc 1 280 29 is_stmt 0 view .LVU83
 300 005e 0749     		ldr	r1, .L22
 301 0060 0425     		movs	r5, #4
 302 0062 0D72     		strb	r5, [r1, #8]
 303 0064 EAE7     		b	.L14
 304              	.L20:
 294:drivers/STM32L4xx_HAL_Driver/Src/stm32l4xx_hal_flash.c ****   }
 305              		.loc 1 294 5 is_stmt 1 view .LVU84
 306 0066 FFF7FEFF 		bl	FLASH_Program_DoubleWord
 307              	.LVL17:
 306:drivers/STM32L4xx_HAL_Driver/Src/stm32l4xx_hal_flash.c **** }
 308              		.loc 1 306 10 is_stmt 0 view .LVU85
 309 006a 0020     		movs	r0, #0
 310 006c F2E7     		b	.L10
 311              	.LVL18:
 312              	.L21:
 299:drivers/STM32L4xx_HAL_Driver/Src/stm32l4xx_hal_flash.c ****   }
 313              		.loc 1 299 5 is_stmt 1 view .LVU86
 314 006e 1146     		mov	r1, r2
 315 0070 FFF7FEFF 		bl	FLASH_Program_Fast
 316              	.LVL19:
 306:drivers/STM32L4xx_HAL_Driver/Src/stm32l4xx_hal_flash.c **** }
 317              		.loc 1 306 10 is_stmt 0 view .LVU87
ARM GAS  C:\Users\mikal\AppData\Local\Temp\cctQ2Bzi.s 			page 37


 318 0074 0020     		movs	r0, #0
 319 0076 EDE7     		b	.L10
 320              	.LVL20:
 321              	.L16:
 261:drivers/STM32L4xx_HAL_Driver/Src/stm32l4xx_hal_flash.c **** 
 322              		.loc 1 261 3 view .LVU88
 323 0078 0220     		movs	r0, #2
 324              	.LVL21:
 261:drivers/STM32L4xx_HAL_Driver/Src/stm32l4xx_hal_flash.c **** 
 325              		.loc 1 261 3 view .LVU89
 326 007a EBE7     		b	.L10
 327              	.L23:
 328              		.align	2
 329              	.L22:
 330 007c 00000000 		.word	.LANCHOR0
 331 0080 00200240 		.word	1073881088
 332              		.cfi_endproc
 333              	.LFE133:
 335              		.section	.text.HAL_FLASH_EndOfOperationCallback,"ax",%progbits
 336              		.align	1
 337              		.weak	HAL_FLASH_EndOfOperationCallback
 338              		.syntax unified
 339              		.thumb
 340              		.thumb_func
 341              		.fpu fpv4-sp-d16
 343              	HAL_FLASH_EndOfOperationCallback:
 344              	.LVL22:
 345              	.LFB135:
 457:drivers/STM32L4xx_HAL_Driver/Src/stm32l4xx_hal_flash.c ****   /* Prevent unused argument(s) compilation warning */
 346              		.loc 1 457 1 is_stmt 1 view -0
 347              		.cfi_startproc
 348              		@ args = 0, pretend = 0, frame = 0
 349              		@ frame_needed = 0, uses_anonymous_args = 0
 350              		@ link register save eliminated.
 459:drivers/STM32L4xx_HAL_Driver/Src/stm32l4xx_hal_flash.c **** 
 351              		.loc 1 459 3 view .LVU91
 464:drivers/STM32L4xx_HAL_Driver/Src/stm32l4xx_hal_flash.c **** 
 352              		.loc 1 464 1 is_stmt 0 view .LVU92
 353 0000 7047     		bx	lr
 354              		.cfi_endproc
 355              	.LFE135:
 357              		.section	.text.HAL_FLASH_OperationErrorCallback,"ax",%progbits
 358              		.align	1
 359              		.weak	HAL_FLASH_OperationErrorCallback
 360              		.syntax unified
 361              		.thumb
 362              		.thumb_func
 363              		.fpu fpv4-sp-d16
 365              	HAL_FLASH_OperationErrorCallback:
 366              	.LVL23:
 367              	.LFB136:
 475:drivers/STM32L4xx_HAL_Driver/Src/stm32l4xx_hal_flash.c ****   /* Prevent unused argument(s) compilation warning */
 368              		.loc 1 475 1 is_stmt 1 view -0
 369              		.cfi_startproc
 370              		@ args = 0, pretend = 0, frame = 0
 371              		@ frame_needed = 0, uses_anonymous_args = 0
 372              		@ link register save eliminated.
ARM GAS  C:\Users\mikal\AppData\Local\Temp\cctQ2Bzi.s 			page 38


 477:drivers/STM32L4xx_HAL_Driver/Src/stm32l4xx_hal_flash.c **** 
 373              		.loc 1 477 3 view .LVU94
 482:drivers/STM32L4xx_HAL_Driver/Src/stm32l4xx_hal_flash.c **** 
 374              		.loc 1 482 1 is_stmt 0 view .LVU95
 375 0000 7047     		bx	lr
 376              		.cfi_endproc
 377              	.LFE136:
 379              		.section	.text.HAL_FLASH_IRQHandler,"ax",%progbits
 380              		.align	1
 381              		.global	HAL_FLASH_IRQHandler
 382              		.syntax unified
 383              		.thumb
 384              		.thumb_func
 385              		.fpu fpv4-sp-d16
 387              	HAL_FLASH_IRQHandler:
 388              	.LFB134:
 314:drivers/STM32L4xx_HAL_Driver/Src/stm32l4xx_hal_flash.c ****   uint32_t tmp_page;
 389              		.loc 1 314 1 is_stmt 1 view -0
 390              		.cfi_startproc
 391              		@ args = 0, pretend = 0, frame = 0
 392              		@ frame_needed = 0, uses_anonymous_args = 0
 393 0000 10B5     		push	{r4, lr}
 394              	.LCFI3:
 395              		.cfi_def_cfa_offset 8
 396              		.cfi_offset 4, -8
 397              		.cfi_offset 14, -4
 315:drivers/STM32L4xx_HAL_Driver/Src/stm32l4xx_hal_flash.c ****   uint32_t error;
 398              		.loc 1 315 3 view .LVU97
 316:drivers/STM32L4xx_HAL_Driver/Src/stm32l4xx_hal_flash.c ****   FLASH_ProcedureTypeDef procedure;
 399              		.loc 1 316 3 view .LVU98
 317:drivers/STM32L4xx_HAL_Driver/Src/stm32l4xx_hal_flash.c **** 
 400              		.loc 1 317 3 view .LVU99
 320:drivers/STM32L4xx_HAL_Driver/Src/stm32l4xx_hal_flash.c **** #if defined (STM32L471xx) || defined (STM32L475xx) || defined (STM32L476xx) || defined (STM32L485xx
 401              		.loc 1 320 3 view .LVU100
 402 0002 494A     		ldr	r2, .L47
 403 0004 5369     		ldr	r3, [r2, #20]
 404 0006 23F4FF63 		bic	r3, r3, #2040
 405 000a 23F00703 		bic	r3, r3, #7
 406 000e 5361     		str	r3, [r2, #20]
 325:drivers/STM32L4xx_HAL_Driver/Src/stm32l4xx_hal_flash.c **** #endif
 407              		.loc 1 325 3 view .LVU101
 408 0010 5369     		ldr	r3, [r2, #20]
 409 0012 23F40043 		bic	r3, r3, #32768
 410 0016 5361     		str	r3, [r2, #20]
 329:drivers/STM32L4xx_HAL_Driver/Src/stm32l4xx_hal_flash.c ****   {
 411              		.loc 1 329 3 view .LVU102
 329:drivers/STM32L4xx_HAL_Driver/Src/stm32l4xx_hal_flash.c ****   {
 412              		.loc 1 329 12 is_stmt 0 view .LVU103
 413 0018 444B     		ldr	r3, .L47+4
 414 001a 1B7A     		ldrb	r3, [r3, #8]	@ zero_extendqisi2
 415 001c DBB2     		uxtb	r3, r3
 329:drivers/STM32L4xx_HAL_Driver/Src/stm32l4xx_hal_flash.c ****   {
 416              		.loc 1 329 5 view .LVU104
 417 001e 042B     		cmp	r3, #4
 418 0020 25D0     		beq	.L40
 419              	.L27:
 335:drivers/STM32L4xx_HAL_Driver/Src/stm32l4xx_hal_flash.c **** 
ARM GAS  C:\Users\mikal\AppData\Local\Temp\cctQ2Bzi.s 			page 39


 420              		.loc 1 335 3 is_stmt 1 view .LVU105
 335:drivers/STM32L4xx_HAL_Driver/Src/stm32l4xx_hal_flash.c **** 
 421              		.loc 1 335 17 is_stmt 0 view .LVU106
 422 0022 414B     		ldr	r3, .L47
 423 0024 1B69     		ldr	r3, [r3, #16]
 335:drivers/STM32L4xx_HAL_Driver/Src/stm32l4xx_hal_flash.c **** 
 424              		.loc 1 335 9 view .LVU107
 425 0026 4CF2FA32 		movw	r2, #50170
 426              	.LVL24:
 337:drivers/STM32L4xx_HAL_Driver/Src/stm32l4xx_hal_flash.c ****   {
 427              		.loc 1 337 3 is_stmt 1 view .LVU108
 337:drivers/STM32L4xx_HAL_Driver/Src/stm32l4xx_hal_flash.c ****   {
 428              		.loc 1 337 6 is_stmt 0 view .LVU109
 429 002a 1340     		ands	r3, r3, r2
 430              	.LVL25:
 337:drivers/STM32L4xx_HAL_Driver/Src/stm32l4xx_hal_flash.c ****   {
 431              		.loc 1 337 6 view .LVU110
 432 002c 24D1     		bne	.L41
 433              	.LVL26:
 434              	.L28:
 373:drivers/STM32L4xx_HAL_Driver/Src/stm32l4xx_hal_flash.c ****   {
 435              		.loc 1 373 3 is_stmt 1 view .LVU111
 373:drivers/STM32L4xx_HAL_Driver/Src/stm32l4xx_hal_flash.c ****   {
 436              		.loc 1 373 6 is_stmt 0 view .LVU112
 437 002e 3E4B     		ldr	r3, .L47
 438 0030 1B69     		ldr	r3, [r3, #16]
 373:drivers/STM32L4xx_HAL_Driver/Src/stm32l4xx_hal_flash.c ****   {
 439              		.loc 1 373 5 view .LVU113
 440 0032 13F0010F 		tst	r3, #1
 441 0036 60D0     		beq	.L33
 376:drivers/STM32L4xx_HAL_Driver/Src/stm32l4xx_hal_flash.c **** 
 442              		.loc 1 376 5 is_stmt 1 discriminator 4 view .LVU114
 376:drivers/STM32L4xx_HAL_Driver/Src/stm32l4xx_hal_flash.c **** 
 443              		.loc 1 376 5 discriminator 4 view .LVU115
 376:drivers/STM32L4xx_HAL_Driver/Src/stm32l4xx_hal_flash.c **** 
 444              		.loc 1 376 5 discriminator 4 view .LVU116
 376:drivers/STM32L4xx_HAL_Driver/Src/stm32l4xx_hal_flash.c **** 
 445              		.loc 1 376 5 discriminator 4 view .LVU117
 446 0038 3B4B     		ldr	r3, .L47
 447 003a 0122     		movs	r2, #1
 448 003c 1A61     		str	r2, [r3, #16]
 376:drivers/STM32L4xx_HAL_Driver/Src/stm32l4xx_hal_flash.c **** 
 449              		.loc 1 376 5 discriminator 4 view .LVU118
 378:drivers/STM32L4xx_HAL_Driver/Src/stm32l4xx_hal_flash.c ****     {
 450              		.loc 1 378 5 discriminator 4 view .LVU119
 378:drivers/STM32L4xx_HAL_Driver/Src/stm32l4xx_hal_flash.c ****     {
 451              		.loc 1 378 14 is_stmt 0 discriminator 4 view .LVU120
 452 003e 3B4B     		ldr	r3, .L47+4
 453 0040 1B7A     		ldrb	r3, [r3, #8]	@ zero_extendqisi2
 454 0042 DBB2     		uxtb	r3, r3
 378:drivers/STM32L4xx_HAL_Driver/Src/stm32l4xx_hal_flash.c ****     {
 455              		.loc 1 378 7 discriminator 4 view .LVU121
 456 0044 9342     		cmp	r3, r2
 457 0046 4AD1     		bne	.L34
 381:drivers/STM32L4xx_HAL_Driver/Src/stm32l4xx_hal_flash.c **** 
 458              		.loc 1 381 7 is_stmt 1 view .LVU122
 381:drivers/STM32L4xx_HAL_Driver/Src/stm32l4xx_hal_flash.c **** 
ARM GAS  C:\Users\mikal\AppData\Local\Temp\cctQ2Bzi.s 			page 40


 459              		.loc 1 381 13 is_stmt 0 view .LVU123
 460 0048 384B     		ldr	r3, .L47+4
 461 004a 9A69     		ldr	r2, [r3, #24]
 381:drivers/STM32L4xx_HAL_Driver/Src/stm32l4xx_hal_flash.c **** 
 462              		.loc 1 381 28 view .LVU124
 463 004c 013A     		subs	r2, r2, #1
 464 004e 9A61     		str	r2, [r3, #24]
 384:drivers/STM32L4xx_HAL_Driver/Src/stm32l4xx_hal_flash.c ****       {
 465              		.loc 1 384 7 is_stmt 1 view .LVU125
 384:drivers/STM32L4xx_HAL_Driver/Src/stm32l4xx_hal_flash.c ****       {
 466              		.loc 1 384 16 is_stmt 0 view .LVU126
 467 0050 9B69     		ldr	r3, [r3, #24]
 384:drivers/STM32L4xx_HAL_Driver/Src/stm32l4xx_hal_flash.c ****       {
 468              		.loc 1 384 9 view .LVU127
 469 0052 002B     		cmp	r3, #0
 470 0054 37D0     		beq	.L35
 387:drivers/STM32L4xx_HAL_Driver/Src/stm32l4xx_hal_flash.c **** 
 471              		.loc 1 387 9 is_stmt 1 view .LVU128
 472 0056 354C     		ldr	r4, .L47+4
 473 0058 6069     		ldr	r0, [r4, #20]
 474 005a FFF7FEFF 		bl	HAL_FLASH_EndOfOperationCallback
 475              	.LVL27:
 390:drivers/STM32L4xx_HAL_Driver/Src/stm32l4xx_hal_flash.c ****         tmp_page = pFlash.Page;
 476              		.loc 1 390 9 view .LVU129
 390:drivers/STM32L4xx_HAL_Driver/Src/stm32l4xx_hal_flash.c ****         tmp_page = pFlash.Page;
 477              		.loc 1 390 15 is_stmt 0 view .LVU130
 478 005e 6369     		ldr	r3, [r4, #20]
 390:drivers/STM32L4xx_HAL_Driver/Src/stm32l4xx_hal_flash.c ****         tmp_page = pFlash.Page;
 479              		.loc 1 390 20 view .LVU131
 480 0060 0133     		adds	r3, r3, #1
 481 0062 6361     		str	r3, [r4, #20]
 391:drivers/STM32L4xx_HAL_Driver/Src/stm32l4xx_hal_flash.c ****         FLASH_PageErase(tmp_page, pFlash.Bank);
 482              		.loc 1 391 9 is_stmt 1 view .LVU132
 391:drivers/STM32L4xx_HAL_Driver/Src/stm32l4xx_hal_flash.c ****         FLASH_PageErase(tmp_page, pFlash.Bank);
 483              		.loc 1 391 18 is_stmt 0 view .LVU133
 484 0064 6069     		ldr	r0, [r4, #20]
 485              	.LVL28:
 392:drivers/STM32L4xx_HAL_Driver/Src/stm32l4xx_hal_flash.c ****       }
 486              		.loc 1 392 9 is_stmt 1 view .LVU134
 487 0066 2169     		ldr	r1, [r4, #16]
 488 0068 FFF7FEFF 		bl	FLASH_PageErase
 489              	.LVL29:
 392:drivers/STM32L4xx_HAL_Driver/Src/stm32l4xx_hal_flash.c ****       }
 490              		.loc 1 392 9 is_stmt 0 view .LVU135
 491 006c 45E0     		b	.L33
 492              	.L40:
 331:drivers/STM32L4xx_HAL_Driver/Src/stm32l4xx_hal_flash.c ****   }
 493              		.loc 1 331 5 is_stmt 1 view .LVU136
 494 006e 5369     		ldr	r3, [r2, #20]
 495 0070 23F48023 		bic	r3, r3, #262144
 496 0074 5361     		str	r3, [r2, #20]
 497 0076 D4E7     		b	.L27
 498              	.LVL30:
 499              	.L41:
 340:drivers/STM32L4xx_HAL_Driver/Src/stm32l4xx_hal_flash.c **** 
 500              		.loc 1 340 5 view .LVU137
 340:drivers/STM32L4xx_HAL_Driver/Src/stm32l4xx_hal_flash.c **** 
ARM GAS  C:\Users\mikal\AppData\Local\Temp\cctQ2Bzi.s 			page 41


 501              		.loc 1 340 22 is_stmt 0 view .LVU138
 502 0078 2C4C     		ldr	r4, .L47+4
 503 007a 6268     		ldr	r2, [r4, #4]
 504 007c 1A43     		orrs	r2, r2, r3
 505 007e 6260     		str	r2, [r4, #4]
 343:drivers/STM32L4xx_HAL_Driver/Src/stm32l4xx_hal_flash.c **** 
 506              		.loc 1 343 5 is_stmt 1 view .LVU139
 343:drivers/STM32L4xx_HAL_Driver/Src/stm32l4xx_hal_flash.c **** 
 507              		.loc 1 343 5 view .LVU140
 343:drivers/STM32L4xx_HAL_Driver/Src/stm32l4xx_hal_flash.c **** 
 508              		.loc 1 343 5 view .LVU141
 343:drivers/STM32L4xx_HAL_Driver/Src/stm32l4xx_hal_flash.c **** 
 509              		.loc 1 343 5 view .LVU142
 510 0080 294A     		ldr	r2, .L47
 511 0082 1361     		str	r3, [r2, #16]
 343:drivers/STM32L4xx_HAL_Driver/Src/stm32l4xx_hal_flash.c **** 
 512              		.loc 1 343 5 view .LVU143
 346:drivers/STM32L4xx_HAL_Driver/Src/stm32l4xx_hal_flash.c **** 
 513              		.loc 1 346 5 view .LVU144
 514 0084 FFF7FEFF 		bl	FLASH_FlushCaches
 515              	.LVL31:
 349:drivers/STM32L4xx_HAL_Driver/Src/stm32l4xx_hal_flash.c ****     if(procedure == FLASH_PROC_PAGE_ERASE)
 516              		.loc 1 349 5 view .LVU145
 349:drivers/STM32L4xx_HAL_Driver/Src/stm32l4xx_hal_flash.c ****     if(procedure == FLASH_PROC_PAGE_ERASE)
 517              		.loc 1 349 15 is_stmt 0 view .LVU146
 518 0088 237A     		ldrb	r3, [r4, #8]	@ zero_extendqisi2
 519 008a DBB2     		uxtb	r3, r3
 520              	.LVL32:
 350:drivers/STM32L4xx_HAL_Driver/Src/stm32l4xx_hal_flash.c ****     {
 521              		.loc 1 350 5 is_stmt 1 view .LVU147
 350:drivers/STM32L4xx_HAL_Driver/Src/stm32l4xx_hal_flash.c ****     {
 522              		.loc 1 350 7 is_stmt 0 view .LVU148
 523 008c 012B     		cmp	r3, #1
 524 008e 0CD0     		beq	.L42
 354:drivers/STM32L4xx_HAL_Driver/Src/stm32l4xx_hal_flash.c ****     {
 525              		.loc 1 354 10 is_stmt 1 view .LVU149
 354:drivers/STM32L4xx_HAL_Driver/Src/stm32l4xx_hal_flash.c ****     {
 526              		.loc 1 354 12 is_stmt 0 view .LVU150
 527 0090 022B     		cmp	r3, #2
 528 0092 0ED0     		beq	.L43
 358:drivers/STM32L4xx_HAL_Driver/Src/stm32l4xx_hal_flash.c ****             (procedure == FLASH_PROC_PROGRAM_LAST))
 529              		.loc 1 358 10 is_stmt 1 view .LVU151
 358:drivers/STM32L4xx_HAL_Driver/Src/stm32l4xx_hal_flash.c ****             (procedure == FLASH_PROC_PROGRAM_LAST))
 530              		.loc 1 358 47 is_stmt 0 view .LVU152
 531 0094 033B     		subs	r3, r3, #3
 532              	.LVL33:
 358:drivers/STM32L4xx_HAL_Driver/Src/stm32l4xx_hal_flash.c ****             (procedure == FLASH_PROC_PROGRAM_LAST))
 533              		.loc 1 358 47 view .LVU153
 534 0096 DBB2     		uxtb	r3, r3
 535              	.LVL34:
 358:drivers/STM32L4xx_HAL_Driver/Src/stm32l4xx_hal_flash.c ****             (procedure == FLASH_PROC_PROGRAM_LAST))
 536              		.loc 1 358 12 view .LVU154
 537 0098 012B     		cmp	r3, #1
 538 009a 0FD9     		bls	.L44
 365:drivers/STM32L4xx_HAL_Driver/Src/stm32l4xx_hal_flash.c ****     }
 539              		.loc 1 365 8 is_stmt 1 view .LVU155
 540 009c 0020     		movs	r0, #0
ARM GAS  C:\Users\mikal\AppData\Local\Temp\cctQ2Bzi.s 			page 42


 541 009e FFF7FEFF 		bl	HAL_FLASH_OperationErrorCallback
 542              	.LVL35:
 543              	.L30:
 369:drivers/STM32L4xx_HAL_Driver/Src/stm32l4xx_hal_flash.c ****   }
 544              		.loc 1 369 5 view .LVU156
 369:drivers/STM32L4xx_HAL_Driver/Src/stm32l4xx_hal_flash.c ****   }
 545              		.loc 1 369 29 is_stmt 0 view .LVU157
 546 00a2 224B     		ldr	r3, .L47+4
 547 00a4 0022     		movs	r2, #0
 548 00a6 1A72     		strb	r2, [r3, #8]
 549 00a8 C1E7     		b	.L28
 550              	.LVL36:
 551              	.L42:
 352:drivers/STM32L4xx_HAL_Driver/Src/stm32l4xx_hal_flash.c ****     }
 552              		.loc 1 352 8 is_stmt 1 view .LVU158
 553 00aa 6069     		ldr	r0, [r4, #20]
 554 00ac FFF7FEFF 		bl	HAL_FLASH_OperationErrorCallback
 555              	.LVL37:
 352:drivers/STM32L4xx_HAL_Driver/Src/stm32l4xx_hal_flash.c ****     }
 556              		.loc 1 352 8 is_stmt 0 view .LVU159
 557 00b0 F7E7     		b	.L30
 558              	.LVL38:
 559              	.L43:
 356:drivers/STM32L4xx_HAL_Driver/Src/stm32l4xx_hal_flash.c ****     }
 560              		.loc 1 356 9 is_stmt 1 view .LVU160
 561 00b2 1E4B     		ldr	r3, .L47+4
 562              	.LVL39:
 356:drivers/STM32L4xx_HAL_Driver/Src/stm32l4xx_hal_flash.c ****     }
 563              		.loc 1 356 9 is_stmt 0 view .LVU161
 564 00b4 1869     		ldr	r0, [r3, #16]
 565 00b6 FFF7FEFF 		bl	HAL_FLASH_OperationErrorCallback
 566              	.LVL40:
 356:drivers/STM32L4xx_HAL_Driver/Src/stm32l4xx_hal_flash.c ****     }
 567              		.loc 1 356 9 view .LVU162
 568 00ba F2E7     		b	.L30
 569              	.LVL41:
 570              	.L44:
 361:drivers/STM32L4xx_HAL_Driver/Src/stm32l4xx_hal_flash.c ****     }
 571              		.loc 1 361 8 is_stmt 1 view .LVU163
 572 00bc 1B4B     		ldr	r3, .L47+4
 573 00be D868     		ldr	r0, [r3, #12]
 574 00c0 FFF7FEFF 		bl	HAL_FLASH_OperationErrorCallback
 575              	.LVL42:
 361:drivers/STM32L4xx_HAL_Driver/Src/stm32l4xx_hal_flash.c ****     }
 576              		.loc 1 361 8 is_stmt 0 view .LVU164
 577 00c4 EDE7     		b	.L30
 578              	.L35:
 398:drivers/STM32L4xx_HAL_Driver/Src/stm32l4xx_hal_flash.c ****         pFlash.ProcedureOnGoing = FLASH_PROC_NONE;
 579              		.loc 1 398 9 is_stmt 1 view .LVU165
 398:drivers/STM32L4xx_HAL_Driver/Src/stm32l4xx_hal_flash.c ****         pFlash.ProcedureOnGoing = FLASH_PROC_NONE;
 580              		.loc 1 398 21 is_stmt 0 view .LVU166
 581 00c6 194C     		ldr	r4, .L47+4
 582 00c8 4FF0FF33 		mov	r3, #-1
 583 00cc 6361     		str	r3, [r4, #20]
 399:drivers/STM32L4xx_HAL_Driver/Src/stm32l4xx_hal_flash.c **** 
 584              		.loc 1 399 9 is_stmt 1 view .LVU167
 399:drivers/STM32L4xx_HAL_Driver/Src/stm32l4xx_hal_flash.c **** 
ARM GAS  C:\Users\mikal\AppData\Local\Temp\cctQ2Bzi.s 			page 43


 585              		.loc 1 399 33 is_stmt 0 view .LVU168
 586 00ce 0023     		movs	r3, #0
 587 00d0 2372     		strb	r3, [r4, #8]
 402:drivers/STM32L4xx_HAL_Driver/Src/stm32l4xx_hal_flash.c **** 
 588              		.loc 1 402 9 is_stmt 1 view .LVU169
 589 00d2 FFF7FEFF 		bl	FLASH_FlushCaches
 590              	.LVL43:
 405:drivers/STM32L4xx_HAL_Driver/Src/stm32l4xx_hal_flash.c ****       }
 591              		.loc 1 405 9 view .LVU170
 592 00d6 6069     		ldr	r0, [r4, #20]
 593 00d8 FFF7FEFF 		bl	HAL_FLASH_EndOfOperationCallback
 594              	.LVL44:
 595 00dc 0DE0     		b	.L33
 596              	.L34:
 411:drivers/STM32L4xx_HAL_Driver/Src/stm32l4xx_hal_flash.c **** 
 597              		.loc 1 411 7 view .LVU171
 598 00de FFF7FEFF 		bl	FLASH_FlushCaches
 599              	.LVL45:
 413:drivers/STM32L4xx_HAL_Driver/Src/stm32l4xx_hal_flash.c ****       if(procedure == FLASH_PROC_MASS_ERASE)
 600              		.loc 1 413 7 view .LVU172
 413:drivers/STM32L4xx_HAL_Driver/Src/stm32l4xx_hal_flash.c ****       if(procedure == FLASH_PROC_MASS_ERASE)
 601              		.loc 1 413 17 is_stmt 0 view .LVU173
 602 00e2 124B     		ldr	r3, .L47+4
 603 00e4 1B7A     		ldrb	r3, [r3, #8]	@ zero_extendqisi2
 604 00e6 DBB2     		uxtb	r3, r3
 605              	.LVL46:
 414:drivers/STM32L4xx_HAL_Driver/Src/stm32l4xx_hal_flash.c ****       {
 606              		.loc 1 414 7 is_stmt 1 view .LVU174
 414:drivers/STM32L4xx_HAL_Driver/Src/stm32l4xx_hal_flash.c ****       {
 607              		.loc 1 414 9 is_stmt 0 view .LVU175
 608 00e8 022B     		cmp	r3, #2
 609 00ea 12D0     		beq	.L45
 420:drivers/STM32L4xx_HAL_Driver/Src/stm32l4xx_hal_flash.c ****               (procedure == FLASH_PROC_PROGRAM_LAST))
 610              		.loc 1 420 12 is_stmt 1 view .LVU176
 420:drivers/STM32L4xx_HAL_Driver/Src/stm32l4xx_hal_flash.c ****               (procedure == FLASH_PROC_PROGRAM_LAST))
 611              		.loc 1 420 49 is_stmt 0 view .LVU177
 612 00ec 033B     		subs	r3, r3, #3
 613              	.LVL47:
 420:drivers/STM32L4xx_HAL_Driver/Src/stm32l4xx_hal_flash.c ****               (procedure == FLASH_PROC_PROGRAM_LAST))
 614              		.loc 1 420 49 view .LVU178
 615 00ee DBB2     		uxtb	r3, r3
 616              	.LVL48:
 420:drivers/STM32L4xx_HAL_Driver/Src/stm32l4xx_hal_flash.c ****               (procedure == FLASH_PROC_PROGRAM_LAST))
 617              		.loc 1 420 14 view .LVU179
 618 00f0 012B     		cmp	r3, #1
 619 00f2 13D9     		bls	.L46
 620              	.LVL49:
 621              	.L37:
 430:drivers/STM32L4xx_HAL_Driver/Src/stm32l4xx_hal_flash.c **** 
 622              		.loc 1 430 7 is_stmt 1 view .LVU180
 433:drivers/STM32L4xx_HAL_Driver/Src/stm32l4xx_hal_flash.c ****     }
 623              		.loc 1 433 7 view .LVU181
 433:drivers/STM32L4xx_HAL_Driver/Src/stm32l4xx_hal_flash.c ****     }
 624              		.loc 1 433 31 is_stmt 0 view .LVU182
 625 00f4 0D4B     		ldr	r3, .L47+4
 626 00f6 0022     		movs	r2, #0
 627 00f8 1A72     		strb	r2, [r3, #8]
ARM GAS  C:\Users\mikal\AppData\Local\Temp\cctQ2Bzi.s 			page 44


 628              	.L33:
 437:drivers/STM32L4xx_HAL_Driver/Src/stm32l4xx_hal_flash.c ****   {
 629              		.loc 1 437 3 is_stmt 1 view .LVU183
 437:drivers/STM32L4xx_HAL_Driver/Src/stm32l4xx_hal_flash.c ****   {
 630              		.loc 1 437 12 is_stmt 0 view .LVU184
 631 00fa 0C4B     		ldr	r3, .L47+4
 632 00fc 1B7A     		ldrb	r3, [r3, #8]	@ zero_extendqisi2
 437:drivers/STM32L4xx_HAL_Driver/Src/stm32l4xx_hal_flash.c ****   {
 633              		.loc 1 437 5 view .LVU185
 634 00fe 3BB9     		cbnz	r3, .L26
 440:drivers/STM32L4xx_HAL_Driver/Src/stm32l4xx_hal_flash.c **** 
 635              		.loc 1 440 5 is_stmt 1 discriminator 4 view .LVU186
 440:drivers/STM32L4xx_HAL_Driver/Src/stm32l4xx_hal_flash.c **** 
 636              		.loc 1 440 5 discriminator 4 view .LVU187
 440:drivers/STM32L4xx_HAL_Driver/Src/stm32l4xx_hal_flash.c **** 
 637              		.loc 1 440 5 discriminator 4 view .LVU188
 440:drivers/STM32L4xx_HAL_Driver/Src/stm32l4xx_hal_flash.c **** 
 638              		.loc 1 440 5 discriminator 4 view .LVU189
 639 0100 094A     		ldr	r2, .L47
 640 0102 5369     		ldr	r3, [r2, #20]
 641 0104 23F04073 		bic	r3, r3, #50331648
 642 0108 5361     		str	r3, [r2, #20]
 440:drivers/STM32L4xx_HAL_Driver/Src/stm32l4xx_hal_flash.c **** 
 643              		.loc 1 440 5 discriminator 4 view .LVU190
 443:drivers/STM32L4xx_HAL_Driver/Src/stm32l4xx_hal_flash.c ****   }
 644              		.loc 1 443 5 discriminator 4 view .LVU191
 443:drivers/STM32L4xx_HAL_Driver/Src/stm32l4xx_hal_flash.c ****   }
 645              		.loc 1 443 5 discriminator 4 view .LVU192
 646 010a 084B     		ldr	r3, .L47+4
 647 010c 0022     		movs	r2, #0
 648 010e 1A70     		strb	r2, [r3]
 443:drivers/STM32L4xx_HAL_Driver/Src/stm32l4xx_hal_flash.c ****   }
 649              		.loc 1 443 5 discriminator 4 view .LVU193
 650              	.L26:
 445:drivers/STM32L4xx_HAL_Driver/Src/stm32l4xx_hal_flash.c **** 
 651              		.loc 1 445 1 is_stmt 0 view .LVU194
 652 0110 10BD     		pop	{r4, pc}
 653              	.LVL50:
 654              	.L45:
 418:drivers/STM32L4xx_HAL_Driver/Src/stm32l4xx_hal_flash.c ****       }
 655              		.loc 1 418 9 is_stmt 1 view .LVU195
 656 0112 064B     		ldr	r3, .L47+4
 657              	.LVL51:
 418:drivers/STM32L4xx_HAL_Driver/Src/stm32l4xx_hal_flash.c ****       }
 658              		.loc 1 418 9 is_stmt 0 view .LVU196
 659 0114 1869     		ldr	r0, [r3, #16]
 660 0116 FFF7FEFF 		bl	HAL_FLASH_EndOfOperationCallback
 661              	.LVL52:
 418:drivers/STM32L4xx_HAL_Driver/Src/stm32l4xx_hal_flash.c ****       }
 662              		.loc 1 418 9 view .LVU197
 663 011a EBE7     		b	.L37
 664              	.LVL53:
 665              	.L46:
 425:drivers/STM32L4xx_HAL_Driver/Src/stm32l4xx_hal_flash.c ****       }
 666              		.loc 1 425 9 is_stmt 1 view .LVU198
 667 011c 034B     		ldr	r3, .L47+4
 668 011e D868     		ldr	r0, [r3, #12]
ARM GAS  C:\Users\mikal\AppData\Local\Temp\cctQ2Bzi.s 			page 45


 669 0120 FFF7FEFF 		bl	HAL_FLASH_EndOfOperationCallback
 670              	.LVL54:
 425:drivers/STM32L4xx_HAL_Driver/Src/stm32l4xx_hal_flash.c ****       }
 671              		.loc 1 425 9 is_stmt 0 view .LVU199
 672 0124 E6E7     		b	.L37
 673              	.L48:
 674 0126 00BF     		.align	2
 675              	.L47:
 676 0128 00200240 		.word	1073881088
 677 012c 00000000 		.word	.LANCHOR0
 678              		.cfi_endproc
 679              	.LFE134:
 681              		.section	.text.HAL_FLASH_Unlock,"ax",%progbits
 682              		.align	1
 683              		.global	HAL_FLASH_Unlock
 684              		.syntax unified
 685              		.thumb
 686              		.thumb_func
 687              		.fpu fpv4-sp-d16
 689              	HAL_FLASH_Unlock:
 690              	.LFB137:
 508:drivers/STM32L4xx_HAL_Driver/Src/stm32l4xx_hal_flash.c ****   HAL_StatusTypeDef status = HAL_OK;
 691              		.loc 1 508 1 is_stmt 1 view -0
 692              		.cfi_startproc
 693              		@ args = 0, pretend = 0, frame = 0
 694              		@ frame_needed = 0, uses_anonymous_args = 0
 695              		@ link register save eliminated.
 509:drivers/STM32L4xx_HAL_Driver/Src/stm32l4xx_hal_flash.c **** 
 696              		.loc 1 509 3 view .LVU201
 697              	.LVL55:
 511:drivers/STM32L4xx_HAL_Driver/Src/stm32l4xx_hal_flash.c ****   {
 698              		.loc 1 511 3 view .LVU202
 511:drivers/STM32L4xx_HAL_Driver/Src/stm32l4xx_hal_flash.c ****   {
 699              		.loc 1 511 6 is_stmt 0 view .LVU203
 700 0000 094B     		ldr	r3, .L54
 701 0002 5B69     		ldr	r3, [r3, #20]
 511:drivers/STM32L4xx_HAL_Driver/Src/stm32l4xx_hal_flash.c ****   {
 702              		.loc 1 511 5 view .LVU204
 703 0004 002B     		cmp	r3, #0
 704 0006 01DB     		blt	.L53
 509:drivers/STM32L4xx_HAL_Driver/Src/stm32l4xx_hal_flash.c **** 
 705              		.loc 1 509 21 view .LVU205
 706 0008 0020     		movs	r0, #0
 707 000a 7047     		bx	lr
 708              	.L53:
 514:drivers/STM32L4xx_HAL_Driver/Src/stm32l4xx_hal_flash.c ****     WRITE_REG(FLASH->KEYR, FLASH_KEY2);
 709              		.loc 1 514 5 is_stmt 1 view .LVU206
 710 000c 064B     		ldr	r3, .L54
 711 000e 074A     		ldr	r2, .L54+4
 712 0010 9A60     		str	r2, [r3, #8]
 515:drivers/STM32L4xx_HAL_Driver/Src/stm32l4xx_hal_flash.c **** 
 713              		.loc 1 515 5 view .LVU207
 714 0012 02F18832 		add	r2, r2, #-2004318072
 715 0016 9A60     		str	r2, [r3, #8]
 518:drivers/STM32L4xx_HAL_Driver/Src/stm32l4xx_hal_flash.c ****     {
 716              		.loc 1 518 5 view .LVU208
 518:drivers/STM32L4xx_HAL_Driver/Src/stm32l4xx_hal_flash.c ****     {
ARM GAS  C:\Users\mikal\AppData\Local\Temp\cctQ2Bzi.s 			page 46


 717              		.loc 1 518 8 is_stmt 0 view .LVU209
 718 0018 5B69     		ldr	r3, [r3, #20]
 518:drivers/STM32L4xx_HAL_Driver/Src/stm32l4xx_hal_flash.c ****     {
 719              		.loc 1 518 7 view .LVU210
 720 001a 002B     		cmp	r3, #0
 721 001c 01DB     		blt	.L52
 509:drivers/STM32L4xx_HAL_Driver/Src/stm32l4xx_hal_flash.c **** 
 722              		.loc 1 509 21 view .LVU211
 723 001e 0020     		movs	r0, #0
 724 0020 7047     		bx	lr
 725              	.L52:
 520:drivers/STM32L4xx_HAL_Driver/Src/stm32l4xx_hal_flash.c ****     }
 726              		.loc 1 520 14 view .LVU212
 727 0022 0120     		movs	r0, #1
 728              	.LVL56:
 524:drivers/STM32L4xx_HAL_Driver/Src/stm32l4xx_hal_flash.c **** }
 729              		.loc 1 524 3 is_stmt 1 view .LVU213
 525:drivers/STM32L4xx_HAL_Driver/Src/stm32l4xx_hal_flash.c **** 
 730              		.loc 1 525 1 is_stmt 0 view .LVU214
 731 0024 7047     		bx	lr
 732              	.L55:
 733 0026 00BF     		.align	2
 734              	.L54:
 735 0028 00200240 		.word	1073881088
 736 002c 23016745 		.word	1164378403
 737              		.cfi_endproc
 738              	.LFE137:
 740              		.section	.text.HAL_FLASH_Lock,"ax",%progbits
 741              		.align	1
 742              		.global	HAL_FLASH_Lock
 743              		.syntax unified
 744              		.thumb
 745              		.thumb_func
 746              		.fpu fpv4-sp-d16
 748              	HAL_FLASH_Lock:
 749              	.LFB138:
 532:drivers/STM32L4xx_HAL_Driver/Src/stm32l4xx_hal_flash.c ****   /* Set the LOCK Bit to lock the FLASH Registers access */
 750              		.loc 1 532 1 is_stmt 1 view -0
 751              		.cfi_startproc
 752              		@ args = 0, pretend = 0, frame = 0
 753              		@ frame_needed = 0, uses_anonymous_args = 0
 754              		@ link register save eliminated.
 534:drivers/STM32L4xx_HAL_Driver/Src/stm32l4xx_hal_flash.c **** 
 755              		.loc 1 534 3 view .LVU216
 756 0000 034A     		ldr	r2, .L57
 757 0002 5369     		ldr	r3, [r2, #20]
 758 0004 43F00043 		orr	r3, r3, #-2147483648
 759 0008 5361     		str	r3, [r2, #20]
 536:drivers/STM32L4xx_HAL_Driver/Src/stm32l4xx_hal_flash.c **** }
 760              		.loc 1 536 3 view .LVU217
 537:drivers/STM32L4xx_HAL_Driver/Src/stm32l4xx_hal_flash.c **** 
 761              		.loc 1 537 1 is_stmt 0 view .LVU218
 762 000a 0020     		movs	r0, #0
 763 000c 7047     		bx	lr
 764              	.L58:
 765 000e 00BF     		.align	2
 766              	.L57:
ARM GAS  C:\Users\mikal\AppData\Local\Temp\cctQ2Bzi.s 			page 47


 767 0010 00200240 		.word	1073881088
 768              		.cfi_endproc
 769              	.LFE138:
 771              		.section	.text.HAL_FLASH_OB_Unlock,"ax",%progbits
 772              		.align	1
 773              		.global	HAL_FLASH_OB_Unlock
 774              		.syntax unified
 775              		.thumb
 776              		.thumb_func
 777              		.fpu fpv4-sp-d16
 779              	HAL_FLASH_OB_Unlock:
 780              	.LFB139:
 544:drivers/STM32L4xx_HAL_Driver/Src/stm32l4xx_hal_flash.c ****   if(READ_BIT(FLASH->CR, FLASH_CR_OPTLOCK) != 0U)
 781              		.loc 1 544 1 is_stmt 1 view -0
 782              		.cfi_startproc
 783              		@ args = 0, pretend = 0, frame = 0
 784              		@ frame_needed = 0, uses_anonymous_args = 0
 785              		@ link register save eliminated.
 545:drivers/STM32L4xx_HAL_Driver/Src/stm32l4xx_hal_flash.c ****   {
 786              		.loc 1 545 3 view .LVU220
 545:drivers/STM32L4xx_HAL_Driver/Src/stm32l4xx_hal_flash.c ****   {
 787              		.loc 1 545 6 is_stmt 0 view .LVU221
 788 0000 074B     		ldr	r3, .L62
 789 0002 5B69     		ldr	r3, [r3, #20]
 545:drivers/STM32L4xx_HAL_Driver/Src/stm32l4xx_hal_flash.c ****   {
 790              		.loc 1 545 5 view .LVU222
 791 0004 13F0804F 		tst	r3, #1073741824
 792 0008 07D0     		beq	.L61
 548:drivers/STM32L4xx_HAL_Driver/Src/stm32l4xx_hal_flash.c ****     WRITE_REG(FLASH->OPTKEYR, FLASH_OPTKEY2);
 793              		.loc 1 548 5 is_stmt 1 view .LVU223
 794 000a 054B     		ldr	r3, .L62
 795 000c 054A     		ldr	r2, .L62+4
 796 000e DA60     		str	r2, [r3, #12]
 549:drivers/STM32L4xx_HAL_Driver/Src/stm32l4xx_hal_flash.c ****   }
 797              		.loc 1 549 5 view .LVU224
 798 0010 02F14432 		add	r2, r2, #1145324612
 799 0014 DA60     		str	r2, [r3, #12]
 556:drivers/STM32L4xx_HAL_Driver/Src/stm32l4xx_hal_flash.c **** }
 800              		.loc 1 556 3 view .LVU225
 556:drivers/STM32L4xx_HAL_Driver/Src/stm32l4xx_hal_flash.c **** }
 801              		.loc 1 556 10 is_stmt 0 view .LVU226
 802 0016 0020     		movs	r0, #0
 803 0018 7047     		bx	lr
 804              	.L61:
 553:drivers/STM32L4xx_HAL_Driver/Src/stm32l4xx_hal_flash.c ****   }
 805              		.loc 1 553 12 view .LVU227
 806 001a 0120     		movs	r0, #1
 557:drivers/STM32L4xx_HAL_Driver/Src/stm32l4xx_hal_flash.c **** 
 807              		.loc 1 557 1 view .LVU228
 808 001c 7047     		bx	lr
 809              	.L63:
 810 001e 00BF     		.align	2
 811              	.L62:
 812 0020 00200240 		.word	1073881088
 813 0024 3B2A1908 		.word	135866939
 814              		.cfi_endproc
 815              	.LFE139:
ARM GAS  C:\Users\mikal\AppData\Local\Temp\cctQ2Bzi.s 			page 48


 817              		.section	.text.HAL_FLASH_OB_Lock,"ax",%progbits
 818              		.align	1
 819              		.global	HAL_FLASH_OB_Lock
 820              		.syntax unified
 821              		.thumb
 822              		.thumb_func
 823              		.fpu fpv4-sp-d16
 825              	HAL_FLASH_OB_Lock:
 826              	.LFB140:
 564:drivers/STM32L4xx_HAL_Driver/Src/stm32l4xx_hal_flash.c ****   /* Set the OPTLOCK Bit to lock the FLASH Option Byte Registers access */
 827              		.loc 1 564 1 is_stmt 1 view -0
 828              		.cfi_startproc
 829              		@ args = 0, pretend = 0, frame = 0
 830              		@ frame_needed = 0, uses_anonymous_args = 0
 831              		@ link register save eliminated.
 566:drivers/STM32L4xx_HAL_Driver/Src/stm32l4xx_hal_flash.c **** 
 832              		.loc 1 566 3 view .LVU230
 833 0000 034A     		ldr	r2, .L65
 834 0002 5369     		ldr	r3, [r2, #20]
 835 0004 43F08043 		orr	r3, r3, #1073741824
 836 0008 5361     		str	r3, [r2, #20]
 568:drivers/STM32L4xx_HAL_Driver/Src/stm32l4xx_hal_flash.c **** }
 837              		.loc 1 568 3 view .LVU231
 569:drivers/STM32L4xx_HAL_Driver/Src/stm32l4xx_hal_flash.c **** 
 838              		.loc 1 569 1 is_stmt 0 view .LVU232
 839 000a 0020     		movs	r0, #0
 840 000c 7047     		bx	lr
 841              	.L66:
 842 000e 00BF     		.align	2
 843              	.L65:
 844 0010 00200240 		.word	1073881088
 845              		.cfi_endproc
 846              	.LFE140:
 848              		.section	.text.HAL_FLASH_GetError,"ax",%progbits
 849              		.align	1
 850              		.global	HAL_FLASH_GetError
 851              		.syntax unified
 852              		.thumb
 853              		.thumb_func
 854              		.fpu fpv4-sp-d16
 856              	HAL_FLASH_GetError:
 857              	.LFB142:
 625:drivers/STM32L4xx_HAL_Driver/Src/stm32l4xx_hal_flash.c ****    return pFlash.ErrorCode;
 858              		.loc 1 625 1 is_stmt 1 view -0
 859              		.cfi_startproc
 860              		@ args = 0, pretend = 0, frame = 0
 861              		@ frame_needed = 0, uses_anonymous_args = 0
 862              		@ link register save eliminated.
 626:drivers/STM32L4xx_HAL_Driver/Src/stm32l4xx_hal_flash.c **** }
 863              		.loc 1 626 4 view .LVU234
 626:drivers/STM32L4xx_HAL_Driver/Src/stm32l4xx_hal_flash.c **** }
 864              		.loc 1 626 17 is_stmt 0 view .LVU235
 865 0000 014B     		ldr	r3, .L68
 866 0002 5868     		ldr	r0, [r3, #4]
 627:drivers/STM32L4xx_HAL_Driver/Src/stm32l4xx_hal_flash.c **** 
 867              		.loc 1 627 1 view .LVU236
 868 0004 7047     		bx	lr
ARM GAS  C:\Users\mikal\AppData\Local\Temp\cctQ2Bzi.s 			page 49


 869              	.L69:
 870 0006 00BF     		.align	2
 871              	.L68:
 872 0008 00000000 		.word	.LANCHOR0
 873              		.cfi_endproc
 874              	.LFE142:
 876              		.section	.text.FLASH_WaitForLastOperation,"ax",%progbits
 877              		.align	1
 878              		.global	FLASH_WaitForLastOperation
 879              		.syntax unified
 880              		.thumb
 881              		.thumb_func
 882              		.fpu fpv4-sp-d16
 884              	FLASH_WaitForLastOperation:
 885              	.LVL57:
 886              	.LFB143:
 649:drivers/STM32L4xx_HAL_Driver/Src/stm32l4xx_hal_flash.c ****   /* Wait for the FLASH operation to complete by polling on BUSY flag to be reset.
 887              		.loc 1 649 1 is_stmt 1 view -0
 888              		.cfi_startproc
 889              		@ args = 0, pretend = 0, frame = 0
 890              		@ frame_needed = 0, uses_anonymous_args = 0
 649:drivers/STM32L4xx_HAL_Driver/Src/stm32l4xx_hal_flash.c ****   /* Wait for the FLASH operation to complete by polling on BUSY flag to be reset.
 891              		.loc 1 649 1 is_stmt 0 view .LVU238
 892 0000 38B5     		push	{r3, r4, r5, lr}
 893              	.LCFI4:
 894              		.cfi_def_cfa_offset 16
 895              		.cfi_offset 3, -16
 896              		.cfi_offset 4, -12
 897              		.cfi_offset 5, -8
 898              		.cfi_offset 14, -4
 899 0002 0446     		mov	r4, r0
 654:drivers/STM32L4xx_HAL_Driver/Src/stm32l4xx_hal_flash.c ****   uint32_t error;
 900              		.loc 1 654 3 is_stmt 1 view .LVU239
 654:drivers/STM32L4xx_HAL_Driver/Src/stm32l4xx_hal_flash.c ****   uint32_t error;
 901              		.loc 1 654 24 is_stmt 0 view .LVU240
 902 0004 FFF7FEFF 		bl	HAL_GetTick
 903              	.LVL58:
 654:drivers/STM32L4xx_HAL_Driver/Src/stm32l4xx_hal_flash.c ****   uint32_t error;
 904              		.loc 1 654 24 view .LVU241
 905 0008 0546     		mov	r5, r0
 906              	.LVL59:
 655:drivers/STM32L4xx_HAL_Driver/Src/stm32l4xx_hal_flash.c **** 
 907              		.loc 1 655 3 is_stmt 1 view .LVU242
 657:drivers/STM32L4xx_HAL_Driver/Src/stm32l4xx_hal_flash.c ****   {
 908              		.loc 1 657 3 view .LVU243
 909              	.L72:
 657:drivers/STM32L4xx_HAL_Driver/Src/stm32l4xx_hal_flash.c ****   {
 910              		.loc 1 657 8 view .LVU244
 657:drivers/STM32L4xx_HAL_Driver/Src/stm32l4xx_hal_flash.c ****   {
 911              		.loc 1 657 9 is_stmt 0 view .LVU245
 912 000a 144B     		ldr	r3, .L81
 913 000c 1B69     		ldr	r3, [r3, #16]
 657:drivers/STM32L4xx_HAL_Driver/Src/stm32l4xx_hal_flash.c ****   {
 914              		.loc 1 657 8 view .LVU246
 915 000e 13F4803F 		tst	r3, #65536
 916 0012 09D0     		beq	.L79
 659:drivers/STM32L4xx_HAL_Driver/Src/stm32l4xx_hal_flash.c ****     {
ARM GAS  C:\Users\mikal\AppData\Local\Temp\cctQ2Bzi.s 			page 50


 917              		.loc 1 659 5 is_stmt 1 view .LVU247
 659:drivers/STM32L4xx_HAL_Driver/Src/stm32l4xx_hal_flash.c ****     {
 918              		.loc 1 659 7 is_stmt 0 view .LVU248
 919 0014 B4F1FF3F 		cmp	r4, #-1
 920 0018 F7D0     		beq	.L72
 661:drivers/STM32L4xx_HAL_Driver/Src/stm32l4xx_hal_flash.c ****       {
 921              		.loc 1 661 7 is_stmt 1 view .LVU249
 661:drivers/STM32L4xx_HAL_Driver/Src/stm32l4xx_hal_flash.c ****       {
 922              		.loc 1 661 11 is_stmt 0 view .LVU250
 923 001a FFF7FEFF 		bl	HAL_GetTick
 924              	.LVL60:
 661:drivers/STM32L4xx_HAL_Driver/Src/stm32l4xx_hal_flash.c ****       {
 925              		.loc 1 661 25 view .LVU251
 926 001e 401B     		subs	r0, r0, r5
 661:drivers/STM32L4xx_HAL_Driver/Src/stm32l4xx_hal_flash.c ****       {
 927              		.loc 1 661 9 view .LVU252
 928 0020 A042     		cmp	r0, r4
 929 0022 F2D3     		bcc	.L72
 663:drivers/STM32L4xx_HAL_Driver/Src/stm32l4xx_hal_flash.c ****       }
 930              		.loc 1 663 16 view .LVU253
 931 0024 0320     		movs	r0, #3
 932 0026 16E0     		b	.L73
 933              	.L79:
 668:drivers/STM32L4xx_HAL_Driver/Src/stm32l4xx_hal_flash.c **** 
 934              		.loc 1 668 3 is_stmt 1 view .LVU254
 668:drivers/STM32L4xx_HAL_Driver/Src/stm32l4xx_hal_flash.c **** 
 935              		.loc 1 668 17 is_stmt 0 view .LVU255
 936 0028 0C4B     		ldr	r3, .L81
 937 002a 1B69     		ldr	r3, [r3, #16]
 668:drivers/STM32L4xx_HAL_Driver/Src/stm32l4xx_hal_flash.c **** 
 938              		.loc 1 668 9 view .LVU256
 939 002c 4CF2FA32 		movw	r2, #50170
 940              	.LVL61:
 670:drivers/STM32L4xx_HAL_Driver/Src/stm32l4xx_hal_flash.c ****   {
 941              		.loc 1 670 3 is_stmt 1 view .LVU257
 670:drivers/STM32L4xx_HAL_Driver/Src/stm32l4xx_hal_flash.c ****   {
 942              		.loc 1 670 5 is_stmt 0 view .LVU258
 943 0030 1340     		ands	r3, r3, r2
 944              	.LVL62:
 670:drivers/STM32L4xx_HAL_Driver/Src/stm32l4xx_hal_flash.c ****   {
 945              		.loc 1 670 5 view .LVU259
 946 0032 09D1     		bne	.L80
 682:drivers/STM32L4xx_HAL_Driver/Src/stm32l4xx_hal_flash.c ****   {
 947              		.loc 1 682 3 is_stmt 1 view .LVU260
 682:drivers/STM32L4xx_HAL_Driver/Src/stm32l4xx_hal_flash.c ****   {
 948              		.loc 1 682 7 is_stmt 0 view .LVU261
 949 0034 094B     		ldr	r3, .L81
 950              	.LVL63:
 682:drivers/STM32L4xx_HAL_Driver/Src/stm32l4xx_hal_flash.c ****   {
 951              		.loc 1 682 7 view .LVU262
 952 0036 1B69     		ldr	r3, [r3, #16]
 682:drivers/STM32L4xx_HAL_Driver/Src/stm32l4xx_hal_flash.c ****   {
 953              		.loc 1 682 6 view .LVU263
 954 0038 13F0010F 		tst	r3, #1
 955 003c 0CD0     		beq	.L77
 685:drivers/STM32L4xx_HAL_Driver/Src/stm32l4xx_hal_flash.c ****   }
 956              		.loc 1 685 5 is_stmt 1 discriminator 4 view .LVU264
ARM GAS  C:\Users\mikal\AppData\Local\Temp\cctQ2Bzi.s 			page 51


 685:drivers/STM32L4xx_HAL_Driver/Src/stm32l4xx_hal_flash.c ****   }
 957              		.loc 1 685 5 discriminator 4 view .LVU265
 685:drivers/STM32L4xx_HAL_Driver/Src/stm32l4xx_hal_flash.c ****   }
 958              		.loc 1 685 5 discriminator 4 view .LVU266
 685:drivers/STM32L4xx_HAL_Driver/Src/stm32l4xx_hal_flash.c ****   }
 959              		.loc 1 685 5 discriminator 4 view .LVU267
 960 003e 074B     		ldr	r3, .L81
 961 0040 0122     		movs	r2, #1
 962 0042 1A61     		str	r2, [r3, #16]
 689:drivers/STM32L4xx_HAL_Driver/Src/stm32l4xx_hal_flash.c **** }
 963              		.loc 1 689 10 is_stmt 0 discriminator 4 view .LVU268
 964 0044 0020     		movs	r0, #0
 965 0046 06E0     		b	.L73
 966              	.LVL64:
 967              	.L80:
 673:drivers/STM32L4xx_HAL_Driver/Src/stm32l4xx_hal_flash.c **** 
 968              		.loc 1 673 5 is_stmt 1 view .LVU269
 673:drivers/STM32L4xx_HAL_Driver/Src/stm32l4xx_hal_flash.c **** 
 969              		.loc 1 673 22 is_stmt 0 view .LVU270
 970 0048 0549     		ldr	r1, .L81+4
 971 004a 4A68     		ldr	r2, [r1, #4]
 972 004c 1A43     		orrs	r2, r2, r3
 973 004e 4A60     		str	r2, [r1, #4]
 676:drivers/STM32L4xx_HAL_Driver/Src/stm32l4xx_hal_flash.c **** 
 974              		.loc 1 676 5 is_stmt 1 view .LVU271
 676:drivers/STM32L4xx_HAL_Driver/Src/stm32l4xx_hal_flash.c **** 
 975              		.loc 1 676 5 view .LVU272
 676:drivers/STM32L4xx_HAL_Driver/Src/stm32l4xx_hal_flash.c **** 
 976              		.loc 1 676 5 view .LVU273
 676:drivers/STM32L4xx_HAL_Driver/Src/stm32l4xx_hal_flash.c **** 
 977              		.loc 1 676 5 view .LVU274
 978 0050 024A     		ldr	r2, .L81
 979 0052 1361     		str	r3, [r2, #16]
 676:drivers/STM32L4xx_HAL_Driver/Src/stm32l4xx_hal_flash.c **** 
 980              		.loc 1 676 5 view .LVU275
 678:drivers/STM32L4xx_HAL_Driver/Src/stm32l4xx_hal_flash.c ****   }
 981              		.loc 1 678 5 view .LVU276
 678:drivers/STM32L4xx_HAL_Driver/Src/stm32l4xx_hal_flash.c ****   }
 982              		.loc 1 678 12 is_stmt 0 view .LVU277
 983 0054 0120     		movs	r0, #1
 984              	.LVL65:
 985              	.L73:
 690:drivers/STM32L4xx_HAL_Driver/Src/stm32l4xx_hal_flash.c **** 
 986              		.loc 1 690 1 view .LVU278
 987 0056 38BD     		pop	{r3, r4, r5, pc}
 988              	.LVL66:
 989              	.L77:
 689:drivers/STM32L4xx_HAL_Driver/Src/stm32l4xx_hal_flash.c **** }
 990              		.loc 1 689 10 view .LVU279
 991 0058 0020     		movs	r0, #0
 992 005a FCE7     		b	.L73
 993              	.L82:
 994              		.align	2
 995              	.L81:
 996 005c 00200240 		.word	1073881088
 997 0060 00000000 		.word	.LANCHOR0
 998              		.cfi_endproc
ARM GAS  C:\Users\mikal\AppData\Local\Temp\cctQ2Bzi.s 			page 52


 999              	.LFE143:
 1001              		.section	.text.HAL_FLASH_Program,"ax",%progbits
 1002              		.align	1
 1003              		.global	HAL_FLASH_Program
 1004              		.syntax unified
 1005              		.thumb
 1006              		.thumb_func
 1007              		.fpu fpv4-sp-d16
 1009              	HAL_FLASH_Program:
 1010              	.LVL67:
 1011              	.LFB132:
 172:drivers/STM32L4xx_HAL_Driver/Src/stm32l4xx_hal_flash.c ****   HAL_StatusTypeDef status;
 1012              		.loc 1 172 1 is_stmt 1 view -0
 1013              		.cfi_startproc
 1014              		@ args = 0, pretend = 0, frame = 0
 1015              		@ frame_needed = 0, uses_anonymous_args = 0
 172:drivers/STM32L4xx_HAL_Driver/Src/stm32l4xx_hal_flash.c ****   HAL_StatusTypeDef status;
 1016              		.loc 1 172 1 is_stmt 0 view .LVU281
 1017 0000 2DE9F041 		push	{r4, r5, r6, r7, r8, lr}
 1018              	.LCFI5:
 1019              		.cfi_def_cfa_offset 24
 1020              		.cfi_offset 4, -24
 1021              		.cfi_offset 5, -20
 1022              		.cfi_offset 6, -16
 1023              		.cfi_offset 7, -12
 1024              		.cfi_offset 8, -8
 1025              		.cfi_offset 14, -4
 1026 0004 1646     		mov	r6, r2
 173:drivers/STM32L4xx_HAL_Driver/Src/stm32l4xx_hal_flash.c ****   uint32_t prog_bit = 0;
 1027              		.loc 1 173 3 is_stmt 1 view .LVU282
 174:drivers/STM32L4xx_HAL_Driver/Src/stm32l4xx_hal_flash.c **** 
 1028              		.loc 1 174 3 view .LVU283
 1029              	.LVL68:
 177:drivers/STM32L4xx_HAL_Driver/Src/stm32l4xx_hal_flash.c **** 
 1030              		.loc 1 177 3 view .LVU284
 177:drivers/STM32L4xx_HAL_Driver/Src/stm32l4xx_hal_flash.c **** 
 1031              		.loc 1 177 3 view .LVU285
 1032 0006 284A     		ldr	r2, .L97
 1033              	.LVL69:
 177:drivers/STM32L4xx_HAL_Driver/Src/stm32l4xx_hal_flash.c **** 
 1034              		.loc 1 177 3 is_stmt 0 view .LVU286
 1035 0008 1278     		ldrb	r2, [r2]	@ zero_extendqisi2
 1036 000a 012A     		cmp	r2, #1
 1037 000c 49D0     		beq	.L91
 1038 000e 0446     		mov	r4, r0
 1039 0010 0D46     		mov	r5, r1
 1040 0012 9846     		mov	r8, r3
 177:drivers/STM32L4xx_HAL_Driver/Src/stm32l4xx_hal_flash.c **** 
 1041              		.loc 1 177 3 is_stmt 1 discriminator 2 view .LVU287
 1042 0014 244B     		ldr	r3, .L97
 1043 0016 0122     		movs	r2, #1
 1044 0018 1A70     		strb	r2, [r3]
 177:drivers/STM32L4xx_HAL_Driver/Src/stm32l4xx_hal_flash.c **** 
 1045              		.loc 1 177 3 discriminator 2 view .LVU288
 180:drivers/STM32L4xx_HAL_Driver/Src/stm32l4xx_hal_flash.c **** 
 1046              		.loc 1 180 3 discriminator 2 view .LVU289
 183:drivers/STM32L4xx_HAL_Driver/Src/stm32l4xx_hal_flash.c **** 
ARM GAS  C:\Users\mikal\AppData\Local\Temp\cctQ2Bzi.s 			page 53


 1047              		.loc 1 183 3 discriminator 2 view .LVU290
 183:drivers/STM32L4xx_HAL_Driver/Src/stm32l4xx_hal_flash.c **** 
 1048              		.loc 1 183 12 is_stmt 0 discriminator 2 view .LVU291
 1049 001a 4CF25030 		movw	r0, #50000
 1050              	.LVL70:
 183:drivers/STM32L4xx_HAL_Driver/Src/stm32l4xx_hal_flash.c **** 
 1051              		.loc 1 183 12 discriminator 2 view .LVU292
 1052 001e FFF7FEFF 		bl	FLASH_WaitForLastOperation
 1053              	.LVL71:
 185:drivers/STM32L4xx_HAL_Driver/Src/stm32l4xx_hal_flash.c ****   {
 1054              		.loc 1 185 3 is_stmt 1 discriminator 2 view .LVU293
 185:drivers/STM32L4xx_HAL_Driver/Src/stm32l4xx_hal_flash.c ****   {
 1055              		.loc 1 185 5 is_stmt 0 discriminator 2 view .LVU294
 1056 0022 0746     		mov	r7, r0
 1057 0024 08BB     		cbnz	r0, .L85
 187:drivers/STM32L4xx_HAL_Driver/Src/stm32l4xx_hal_flash.c **** 
 1058              		.loc 1 187 5 is_stmt 1 view .LVU295
 187:drivers/STM32L4xx_HAL_Driver/Src/stm32l4xx_hal_flash.c **** 
 1059              		.loc 1 187 22 is_stmt 0 view .LVU296
 1060 0026 204B     		ldr	r3, .L97
 1061 0028 0022     		movs	r2, #0
 1062 002a 5A60     		str	r2, [r3, #4]
 190:drivers/STM32L4xx_HAL_Driver/Src/stm32l4xx_hal_flash.c ****     {
 1063              		.loc 1 190 5 is_stmt 1 view .LVU297
 190:drivers/STM32L4xx_HAL_Driver/Src/stm32l4xx_hal_flash.c ****     {
 1064              		.loc 1 190 8 is_stmt 0 view .LVU298
 1065 002c 1F4B     		ldr	r3, .L97+4
 1066 002e 1B68     		ldr	r3, [r3]
 190:drivers/STM32L4xx_HAL_Driver/Src/stm32l4xx_hal_flash.c ****     {
 1067              		.loc 1 190 7 view .LVU299
 1068 0030 13F4806F 		tst	r3, #1024
 1069 0034 1FD0     		beq	.L86
 193:drivers/STM32L4xx_HAL_Driver/Src/stm32l4xx_hal_flash.c ****       pFlash.CacheToReactivate = FLASH_CACHE_DCACHE_ENABLED;
 1070              		.loc 1 193 7 is_stmt 1 view .LVU300
 1071 0036 1D4A     		ldr	r2, .L97+4
 1072 0038 1368     		ldr	r3, [r2]
 1073 003a 23F48063 		bic	r3, r3, #1024
 1074 003e 1360     		str	r3, [r2]
 194:drivers/STM32L4xx_HAL_Driver/Src/stm32l4xx_hal_flash.c ****     }
 1075              		.loc 1 194 7 view .LVU301
 194:drivers/STM32L4xx_HAL_Driver/Src/stm32l4xx_hal_flash.c ****     }
 1076              		.loc 1 194 32 is_stmt 0 view .LVU302
 1077 0040 194B     		ldr	r3, .L97
 1078 0042 0222     		movs	r2, #2
 1079 0044 1A77     		strb	r2, [r3, #28]
 1080              	.L87:
 201:drivers/STM32L4xx_HAL_Driver/Src/stm32l4xx_hal_flash.c ****     {
 1081              		.loc 1 201 5 is_stmt 1 view .LVU303
 201:drivers/STM32L4xx_HAL_Driver/Src/stm32l4xx_hal_flash.c ****     {
 1082              		.loc 1 201 7 is_stmt 0 view .LVU304
 1083 0046 D4B1     		cbz	r4, .L95
 207:drivers/STM32L4xx_HAL_Driver/Src/stm32l4xx_hal_flash.c ****     {
 1084              		.loc 1 207 10 is_stmt 1 view .LVU305
 207:drivers/STM32L4xx_HAL_Driver/Src/stm32l4xx_hal_flash.c ****     {
 1085              		.loc 1 207 53 is_stmt 0 view .LVU306
 1086 0048 631E     		subs	r3, r4, #1
 207:drivers/STM32L4xx_HAL_Driver/Src/stm32l4xx_hal_flash.c ****     {
ARM GAS  C:\Users\mikal\AppData\Local\Temp\cctQ2Bzi.s 			page 54


 1087              		.loc 1 207 12 view .LVU307
 1088 004a 012B     		cmp	r3, #1
 1089 004c 1ED9     		bls	.L96
 174:drivers/STM32L4xx_HAL_Driver/Src/stm32l4xx_hal_flash.c **** 
 1090              		.loc 1 174 12 view .LVU308
 1091 004e 0024     		movs	r4, #0
 1092              	.LVL72:
 1093              	.L89:
 221:drivers/STM32L4xx_HAL_Driver/Src/stm32l4xx_hal_flash.c **** 
 1094              		.loc 1 221 5 is_stmt 1 view .LVU309
 224:drivers/STM32L4xx_HAL_Driver/Src/stm32l4xx_hal_flash.c **** 
 1095              		.loc 1 224 5 view .LVU310
 224:drivers/STM32L4xx_HAL_Driver/Src/stm32l4xx_hal_flash.c **** 
 1096              		.loc 1 224 14 is_stmt 0 view .LVU311
 1097 0050 4CF25030 		movw	r0, #50000
 1098 0054 FFF7FEFF 		bl	FLASH_WaitForLastOperation
 1099              	.LVL73:
 1100 0058 0746     		mov	r7, r0
 1101              	.LVL74:
 227:drivers/STM32L4xx_HAL_Driver/Src/stm32l4xx_hal_flash.c ****     {
 1102              		.loc 1 227 5 is_stmt 1 view .LVU312
 227:drivers/STM32L4xx_HAL_Driver/Src/stm32l4xx_hal_flash.c ****     {
 1103              		.loc 1 227 8 is_stmt 0 view .LVU313
 1104 005a 24B1     		cbz	r4, .L90
 229:drivers/STM32L4xx_HAL_Driver/Src/stm32l4xx_hal_flash.c ****     }
 1105              		.loc 1 229 7 is_stmt 1 view .LVU314
 1106 005c 134A     		ldr	r2, .L97+4
 1107 005e 5369     		ldr	r3, [r2, #20]
 1108 0060 23EA0404 		bic	r4, r3, r4
 1109              	.LVL75:
 229:drivers/STM32L4xx_HAL_Driver/Src/stm32l4xx_hal_flash.c ****     }
 1110              		.loc 1 229 7 is_stmt 0 view .LVU315
 1111 0064 5461     		str	r4, [r2, #20]
 1112              	.L90:
 233:drivers/STM32L4xx_HAL_Driver/Src/stm32l4xx_hal_flash.c ****   }
 1113              		.loc 1 233 5 is_stmt 1 view .LVU316
 1114 0066 FFF7FEFF 		bl	FLASH_FlushCaches
 1115              	.LVL76:
 1116              	.L85:
 237:drivers/STM32L4xx_HAL_Driver/Src/stm32l4xx_hal_flash.c **** 
 1117              		.loc 1 237 3 view .LVU317
 237:drivers/STM32L4xx_HAL_Driver/Src/stm32l4xx_hal_flash.c **** 
 1118              		.loc 1 237 3 view .LVU318
 1119 006a 0F4B     		ldr	r3, .L97
 1120 006c 0022     		movs	r2, #0
 1121 006e 1A70     		strb	r2, [r3]
 237:drivers/STM32L4xx_HAL_Driver/Src/stm32l4xx_hal_flash.c **** 
 1122              		.loc 1 237 3 view .LVU319
 239:drivers/STM32L4xx_HAL_Driver/Src/stm32l4xx_hal_flash.c **** }
 1123              		.loc 1 239 3 view .LVU320
 1124              	.LVL77:
 1125              	.L84:
 240:drivers/STM32L4xx_HAL_Driver/Src/stm32l4xx_hal_flash.c **** 
 1126              		.loc 1 240 1 is_stmt 0 view .LVU321
 1127 0070 3846     		mov	r0, r7
 1128 0072 BDE8F081 		pop	{r4, r5, r6, r7, r8, pc}
 1129              	.LVL78:
ARM GAS  C:\Users\mikal\AppData\Local\Temp\cctQ2Bzi.s 			page 55


 1130              	.L86:
 198:drivers/STM32L4xx_HAL_Driver/Src/stm32l4xx_hal_flash.c ****     }
 1131              		.loc 1 198 7 is_stmt 1 view .LVU322
 198:drivers/STM32L4xx_HAL_Driver/Src/stm32l4xx_hal_flash.c ****     }
 1132              		.loc 1 198 32 is_stmt 0 view .LVU323
 1133 0076 0C4B     		ldr	r3, .L97
 1134 0078 0022     		movs	r2, #0
 1135 007a 1A77     		strb	r2, [r3, #28]
 1136 007c E3E7     		b	.L87
 1137              	.L95:
 204:drivers/STM32L4xx_HAL_Driver/Src/stm32l4xx_hal_flash.c ****       prog_bit = FLASH_CR_PG;
 1138              		.loc 1 204 7 is_stmt 1 view .LVU324
 1139 007e 3246     		mov	r2, r6
 1140 0080 4346     		mov	r3, r8
 1141 0082 2846     		mov	r0, r5
 1142              	.LVL79:
 204:drivers/STM32L4xx_HAL_Driver/Src/stm32l4xx_hal_flash.c ****       prog_bit = FLASH_CR_PG;
 1143              		.loc 1 204 7 is_stmt 0 view .LVU325
 1144 0084 FFF7FEFF 		bl	FLASH_Program_DoubleWord
 1145              	.LVL80:
 205:drivers/STM32L4xx_HAL_Driver/Src/stm32l4xx_hal_flash.c ****     }
 1146              		.loc 1 205 7 is_stmt 1 view .LVU326
 205:drivers/STM32L4xx_HAL_Driver/Src/stm32l4xx_hal_flash.c ****     }
 1147              		.loc 1 205 16 is_stmt 0 view .LVU327
 1148 0088 0124     		movs	r4, #1
 1149              	.LVL81:
 205:drivers/STM32L4xx_HAL_Driver/Src/stm32l4xx_hal_flash.c ****     }
 1150              		.loc 1 205 16 view .LVU328
 1151 008a E1E7     		b	.L89
 1152              	.LVL82:
 1153              	.L96:
 210:drivers/STM32L4xx_HAL_Driver/Src/stm32l4xx_hal_flash.c **** 
 1154              		.loc 1 210 7 is_stmt 1 view .LVU329
 1155 008c 3146     		mov	r1, r6
 1156 008e 2846     		mov	r0, r5
 1157              	.LVL83:
 210:drivers/STM32L4xx_HAL_Driver/Src/stm32l4xx_hal_flash.c **** 
 1158              		.loc 1 210 7 is_stmt 0 view .LVU330
 1159 0090 FFF7FEFF 		bl	FLASH_Program_Fast
 1160              	.LVL84:
 213:drivers/STM32L4xx_HAL_Driver/Src/stm32l4xx_hal_flash.c ****       {
 1161              		.loc 1 213 7 is_stmt 1 view .LVU331
 213:drivers/STM32L4xx_HAL_Driver/Src/stm32l4xx_hal_flash.c ****       {
 1162              		.loc 1 213 9 is_stmt 0 view .LVU332
 1163 0094 022C     		cmp	r4, #2
 1164 0096 01D0     		beq	.L93
 174:drivers/STM32L4xx_HAL_Driver/Src/stm32l4xx_hal_flash.c **** 
 1165              		.loc 1 174 12 view .LVU333
 1166 0098 0024     		movs	r4, #0
 1167              	.LVL85:
 174:drivers/STM32L4xx_HAL_Driver/Src/stm32l4xx_hal_flash.c **** 
 1168              		.loc 1 174 12 view .LVU334
 1169 009a D9E7     		b	.L89
 1170              	.LVL86:
 1171              	.L93:
 215:drivers/STM32L4xx_HAL_Driver/Src/stm32l4xx_hal_flash.c ****       }
 1172              		.loc 1 215 18 view .LVU335
ARM GAS  C:\Users\mikal\AppData\Local\Temp\cctQ2Bzi.s 			page 56


 1173 009c 4FF48024 		mov	r4, #262144
 1174              	.LVL87:
 215:drivers/STM32L4xx_HAL_Driver/Src/stm32l4xx_hal_flash.c ****       }
 1175              		.loc 1 215 18 view .LVU336
 1176 00a0 D6E7     		b	.L89
 1177              	.LVL88:
 1178              	.L91:
 177:drivers/STM32L4xx_HAL_Driver/Src/stm32l4xx_hal_flash.c **** 
 1179              		.loc 1 177 3 view .LVU337
 1180 00a2 0227     		movs	r7, #2
 1181 00a4 E4E7     		b	.L84
 1182              	.L98:
 1183 00a6 00BF     		.align	2
 1184              	.L97:
 1185 00a8 00000000 		.word	.LANCHOR0
 1186 00ac 00200240 		.word	1073881088
 1187              		.cfi_endproc
 1188              	.LFE132:
 1190              		.section	.text.HAL_FLASH_OB_Launch,"ax",%progbits
 1191              		.align	1
 1192              		.global	HAL_FLASH_OB_Launch
 1193              		.syntax unified
 1194              		.thumb
 1195              		.thumb_func
 1196              		.fpu fpv4-sp-d16
 1198              	HAL_FLASH_OB_Launch:
 1199              	.LFB141:
 576:drivers/STM32L4xx_HAL_Driver/Src/stm32l4xx_hal_flash.c ****   /* Set the bit to force the option byte reloading */
 1200              		.loc 1 576 1 is_stmt 1 view -0
 1201              		.cfi_startproc
 1202              		@ args = 0, pretend = 0, frame = 0
 1203              		@ frame_needed = 0, uses_anonymous_args = 0
 1204 0000 08B5     		push	{r3, lr}
 1205              	.LCFI6:
 1206              		.cfi_def_cfa_offset 8
 1207              		.cfi_offset 3, -8
 1208              		.cfi_offset 14, -4
 578:drivers/STM32L4xx_HAL_Driver/Src/stm32l4xx_hal_flash.c **** 
 1209              		.loc 1 578 3 view .LVU339
 1210 0002 054A     		ldr	r2, .L101
 1211 0004 5369     		ldr	r3, [r2, #20]
 1212 0006 43F00063 		orr	r3, r3, #134217728
 1213 000a 5361     		str	r3, [r2, #20]
 581:drivers/STM32L4xx_HAL_Driver/Src/stm32l4xx_hal_flash.c **** }
 1214              		.loc 1 581 3 view .LVU340
 581:drivers/STM32L4xx_HAL_Driver/Src/stm32l4xx_hal_flash.c **** }
 1215              		.loc 1 581 10 is_stmt 0 view .LVU341
 1216 000c 4CF25030 		movw	r0, #50000
 1217 0010 FFF7FEFF 		bl	FLASH_WaitForLastOperation
 1218              	.LVL89:
 582:drivers/STM32L4xx_HAL_Driver/Src/stm32l4xx_hal_flash.c **** 
 1219              		.loc 1 582 1 view .LVU342
 1220 0014 08BD     		pop	{r3, pc}
 1221              	.L102:
 1222 0016 00BF     		.align	2
 1223              	.L101:
 1224 0018 00200240 		.word	1073881088
ARM GAS  C:\Users\mikal\AppData\Local\Temp\cctQ2Bzi.s 			page 57


 1225              		.cfi_endproc
 1226              	.LFE141:
 1228              		.global	pFlash
 1229              		.section	.data.pFlash,"aw"
 1230              		.align	2
 1231              		.set	.LANCHOR0,. + 0
 1234              	pFlash:
 1235 0000 00       		.byte	0
 1236 0001 000000   		.space	3
 1237 0004 00000000 		.word	0
 1238 0008 00       		.byte	0
 1239 0009 000000   		.space	3
 1240 000c 00000000 		.word	0
 1241 0010 01000000 		.word	1
 1242 0014 00000000 		.word	0
 1243 0018 00000000 		.word	0
 1244 001c 00       		.byte	0
 1245 001d 000000   		.space	3
 1246              		.text
 1247              	.Letext0:
 1248              		.file 3 "c:\\gnu arm embedded toolchain\\10 2021.07\\arm-none-eabi\\include\\machine\\_default_typ
 1249              		.file 4 "c:\\gnu arm embedded toolchain\\10 2021.07\\arm-none-eabi\\include\\sys\\_stdint.h"
 1250              		.file 5 "drivers/CMSIS/Device/ST/STM32L4xx/Include/stm32l475xx.h"
 1251              		.file 6 "drivers/STM32L4xx_HAL_Driver/Inc/stm32l4xx_hal_def.h"
 1252              		.file 7 "drivers/STM32L4xx_HAL_Driver/Inc/stm32l4xx_hal_flash.h"
 1253              		.file 8 "drivers/STM32L4xx_HAL_Driver/Inc/stm32l4xx_hal.h"
 1254              		.file 9 "drivers/STM32L4xx_HAL_Driver/Inc/stm32l4xx_hal_flash_ex.h"
ARM GAS  C:\Users\mikal\AppData\Local\Temp\cctQ2Bzi.s 			page 58


DEFINED SYMBOLS
                            *ABS*:00000000 stm32l4xx_hal_flash.c
C:\Users\mikal\AppData\Local\Temp\cctQ2Bzi.s:18     .text.FLASH_Program_DoubleWord:00000000 $t
C:\Users\mikal\AppData\Local\Temp\cctQ2Bzi.s:25     .text.FLASH_Program_DoubleWord:00000000 FLASH_Program_DoubleWord
C:\Users\mikal\AppData\Local\Temp\cctQ2Bzi.s:75     .text.FLASH_Program_DoubleWord:0000001c $d
C:\Users\mikal\AppData\Local\Temp\cctQ2Bzi.s:80     .text.FLASH_Program_Fast:00000000 $t
C:\Users\mikal\AppData\Local\Temp\cctQ2Bzi.s:86     .text.FLASH_Program_Fast:00000000 FLASH_Program_Fast
C:\Users\mikal\AppData\Local\Temp\cctQ2Bzi.s:182    .text.FLASH_Program_Fast:00000028 $d
C:\Users\mikal\AppData\Local\Temp\cctQ2Bzi.s:187    .text.HAL_FLASH_Program_IT:00000000 $t
C:\Users\mikal\AppData\Local\Temp\cctQ2Bzi.s:194    .text.HAL_FLASH_Program_IT:00000000 HAL_FLASH_Program_IT
C:\Users\mikal\AppData\Local\Temp\cctQ2Bzi.s:330    .text.HAL_FLASH_Program_IT:0000007c $d
C:\Users\mikal\AppData\Local\Temp\cctQ2Bzi.s:336    .text.HAL_FLASH_EndOfOperationCallback:00000000 $t
C:\Users\mikal\AppData\Local\Temp\cctQ2Bzi.s:343    .text.HAL_FLASH_EndOfOperationCallback:00000000 HAL_FLASH_EndOfOperationCallback
C:\Users\mikal\AppData\Local\Temp\cctQ2Bzi.s:358    .text.HAL_FLASH_OperationErrorCallback:00000000 $t
C:\Users\mikal\AppData\Local\Temp\cctQ2Bzi.s:365    .text.HAL_FLASH_OperationErrorCallback:00000000 HAL_FLASH_OperationErrorCallback
C:\Users\mikal\AppData\Local\Temp\cctQ2Bzi.s:380    .text.HAL_FLASH_IRQHandler:00000000 $t
C:\Users\mikal\AppData\Local\Temp\cctQ2Bzi.s:387    .text.HAL_FLASH_IRQHandler:00000000 HAL_FLASH_IRQHandler
C:\Users\mikal\AppData\Local\Temp\cctQ2Bzi.s:676    .text.HAL_FLASH_IRQHandler:00000128 $d
C:\Users\mikal\AppData\Local\Temp\cctQ2Bzi.s:682    .text.HAL_FLASH_Unlock:00000000 $t
C:\Users\mikal\AppData\Local\Temp\cctQ2Bzi.s:689    .text.HAL_FLASH_Unlock:00000000 HAL_FLASH_Unlock
C:\Users\mikal\AppData\Local\Temp\cctQ2Bzi.s:735    .text.HAL_FLASH_Unlock:00000028 $d
C:\Users\mikal\AppData\Local\Temp\cctQ2Bzi.s:741    .text.HAL_FLASH_Lock:00000000 $t
C:\Users\mikal\AppData\Local\Temp\cctQ2Bzi.s:748    .text.HAL_FLASH_Lock:00000000 HAL_FLASH_Lock
C:\Users\mikal\AppData\Local\Temp\cctQ2Bzi.s:767    .text.HAL_FLASH_Lock:00000010 $d
C:\Users\mikal\AppData\Local\Temp\cctQ2Bzi.s:772    .text.HAL_FLASH_OB_Unlock:00000000 $t
C:\Users\mikal\AppData\Local\Temp\cctQ2Bzi.s:779    .text.HAL_FLASH_OB_Unlock:00000000 HAL_FLASH_OB_Unlock
C:\Users\mikal\AppData\Local\Temp\cctQ2Bzi.s:812    .text.HAL_FLASH_OB_Unlock:00000020 $d
C:\Users\mikal\AppData\Local\Temp\cctQ2Bzi.s:818    .text.HAL_FLASH_OB_Lock:00000000 $t
C:\Users\mikal\AppData\Local\Temp\cctQ2Bzi.s:825    .text.HAL_FLASH_OB_Lock:00000000 HAL_FLASH_OB_Lock
C:\Users\mikal\AppData\Local\Temp\cctQ2Bzi.s:844    .text.HAL_FLASH_OB_Lock:00000010 $d
C:\Users\mikal\AppData\Local\Temp\cctQ2Bzi.s:849    .text.HAL_FLASH_GetError:00000000 $t
C:\Users\mikal\AppData\Local\Temp\cctQ2Bzi.s:856    .text.HAL_FLASH_GetError:00000000 HAL_FLASH_GetError
C:\Users\mikal\AppData\Local\Temp\cctQ2Bzi.s:872    .text.HAL_FLASH_GetError:00000008 $d
C:\Users\mikal\AppData\Local\Temp\cctQ2Bzi.s:877    .text.FLASH_WaitForLastOperation:00000000 $t
C:\Users\mikal\AppData\Local\Temp\cctQ2Bzi.s:884    .text.FLASH_WaitForLastOperation:00000000 FLASH_WaitForLastOperation
C:\Users\mikal\AppData\Local\Temp\cctQ2Bzi.s:996    .text.FLASH_WaitForLastOperation:0000005c $d
C:\Users\mikal\AppData\Local\Temp\cctQ2Bzi.s:1002   .text.HAL_FLASH_Program:00000000 $t
C:\Users\mikal\AppData\Local\Temp\cctQ2Bzi.s:1009   .text.HAL_FLASH_Program:00000000 HAL_FLASH_Program
C:\Users\mikal\AppData\Local\Temp\cctQ2Bzi.s:1185   .text.HAL_FLASH_Program:000000a8 $d
C:\Users\mikal\AppData\Local\Temp\cctQ2Bzi.s:1191   .text.HAL_FLASH_OB_Launch:00000000 $t
C:\Users\mikal\AppData\Local\Temp\cctQ2Bzi.s:1198   .text.HAL_FLASH_OB_Launch:00000000 HAL_FLASH_OB_Launch
C:\Users\mikal\AppData\Local\Temp\cctQ2Bzi.s:1224   .text.HAL_FLASH_OB_Launch:00000018 $d
C:\Users\mikal\AppData\Local\Temp\cctQ2Bzi.s:1234   .data.pFlash:00000000 pFlash
C:\Users\mikal\AppData\Local\Temp\cctQ2Bzi.s:1230   .data.pFlash:00000000 $d

UNDEFINED SYMBOLS
FLASH_PageErase
FLASH_FlushCaches
HAL_GetTick
