ARM GAS  C:\Users\mikal\AppData\Local\Temp\ccMEung6.s 			page 1


   1              		.cpu cortex-m4
   2              		.eabi_attribute 27, 1
   3              		.eabi_attribute 28, 1
   4              		.eabi_attribute 20, 1
   5              		.eabi_attribute 21, 1
   6              		.eabi_attribute 23, 3
   7              		.eabi_attribute 24, 1
   8              		.eabi_attribute 25, 1
   9              		.eabi_attribute 26, 1
  10              		.eabi_attribute 30, 1
  11              		.eabi_attribute 34, 1
  12              		.eabi_attribute 18, 4
  13              		.file	"syscalls.c"
  14              		.text
  15              	.Ltext0:
  16              		.cfi_sections	.debug_frame
  17              		.section	.text.initialise_monitor_handles,"ax",%progbits
  18              		.align	1
  19              		.global	initialise_monitor_handles
  20              		.arch armv7e-m
  21              		.syntax unified
  22              		.thumb
  23              		.thumb_func
  24              		.fpu fpv4-sp-d16
  26              	initialise_monitor_handles:
  27              	.LFB25:
  28              		.file 1 "syscalls.c"
   1:syscalls.c    **** /**
   2:syscalls.c    ****  ******************************************************************************
   3:syscalls.c    ****  * @file      syscalls.c
   4:syscalls.c    ****  * @author    Auto-generated by STM32CubeIDE
   5:syscalls.c    ****  * @brief     STM32CubeIDE Minimal System calls file
   6:syscalls.c    ****  *
   7:syscalls.c    ****  *            For more information about which c-functions
   8:syscalls.c    ****  *            need which of these lowlevel functions
   9:syscalls.c    ****  *            please consult the Newlib libc-manual
  10:syscalls.c    ****  ******************************************************************************
  11:syscalls.c    ****  * @attention
  12:syscalls.c    ****  *
  13:syscalls.c    ****  * <h2><center>&copy; Copyright (c) 2020 STMicroelectronics.
  14:syscalls.c    ****  * All rights reserved.</center></h2>
  15:syscalls.c    ****  *
  16:syscalls.c    ****  * This software component is licensed by ST under BSD 3-Clause license,
  17:syscalls.c    ****  * the "License"; You may not use this file except in compliance with the
  18:syscalls.c    ****  * License. You may obtain a copy of the License at:
  19:syscalls.c    ****  *                        opensource.org/licenses/BSD-3-Clause
  20:syscalls.c    ****  *
  21:syscalls.c    ****  ******************************************************************************
  22:syscalls.c    ****  */
  23:syscalls.c    **** 
  24:syscalls.c    **** /* Includes */
  25:syscalls.c    **** #include <sys/stat.h>
  26:syscalls.c    **** #include <stdlib.h>
  27:syscalls.c    **** #include <errno.h>
  28:syscalls.c    **** #include <stdio.h>
  29:syscalls.c    **** #include <signal.h>
  30:syscalls.c    **** #include <time.h>
ARM GAS  C:\Users\mikal\AppData\Local\Temp\ccMEung6.s 			page 2


  31:syscalls.c    **** #include <sys/time.h>
  32:syscalls.c    **** #include <sys/times.h>
  33:syscalls.c    **** 
  34:syscalls.c    **** 
  35:syscalls.c    **** /* Variables */
  36:syscalls.c    **** //#undef errno
  37:syscalls.c    **** extern int errno;
  38:syscalls.c    **** extern int __io_putchar(int ch) __attribute__((weak));
  39:syscalls.c    **** extern int __io_getchar(void) __attribute__((weak));
  40:syscalls.c    **** 
  41:syscalls.c    **** register char * stack_ptr asm("sp");
  42:syscalls.c    **** 
  43:syscalls.c    **** char *__env[1] = { 0 };
  44:syscalls.c    **** char **environ = __env;
  45:syscalls.c    **** 
  46:syscalls.c    **** 
  47:syscalls.c    **** /* Functions */
  48:syscalls.c    **** void initialise_monitor_handles()
  49:syscalls.c    **** {
  29              		.loc 1 49 1 view -0
  30              		.cfi_startproc
  31              		@ args = 0, pretend = 0, frame = 0
  32              		@ frame_needed = 0, uses_anonymous_args = 0
  33              		@ link register save eliminated.
  50:syscalls.c    **** }
  34              		.loc 1 50 1 view .LVU1
  35 0000 7047     		bx	lr
  36              		.cfi_endproc
  37              	.LFE25:
  39              		.section	.text._getpid,"ax",%progbits
  40              		.align	1
  41              		.global	_getpid
  42              		.syntax unified
  43              		.thumb
  44              		.thumb_func
  45              		.fpu fpv4-sp-d16
  47              	_getpid:
  48              	.LFB26:
  51:syscalls.c    **** 
  52:syscalls.c    **** int _getpid(void)
  53:syscalls.c    **** {
  49              		.loc 1 53 1 view -0
  50              		.cfi_startproc
  51              		@ args = 0, pretend = 0, frame = 0
  52              		@ frame_needed = 0, uses_anonymous_args = 0
  53              		@ link register save eliminated.
  54:syscalls.c    **** 	return 1;
  54              		.loc 1 54 2 view .LVU3
  55:syscalls.c    **** }
  55              		.loc 1 55 1 is_stmt 0 view .LVU4
  56 0000 0120     		movs	r0, #1
  57 0002 7047     		bx	lr
  58              		.cfi_endproc
  59              	.LFE26:
  61              		.section	.text._kill,"ax",%progbits
  62              		.align	1
  63              		.global	_kill
ARM GAS  C:\Users\mikal\AppData\Local\Temp\ccMEung6.s 			page 3


  64              		.syntax unified
  65              		.thumb
  66              		.thumb_func
  67              		.fpu fpv4-sp-d16
  69              	_kill:
  70              	.LVL0:
  71              	.LFB27:
  56:syscalls.c    **** 
  57:syscalls.c    **** int _kill(int pid, int sig)
  58:syscalls.c    **** {
  72              		.loc 1 58 1 is_stmt 1 view -0
  73              		.cfi_startproc
  74              		@ args = 0, pretend = 0, frame = 0
  75              		@ frame_needed = 0, uses_anonymous_args = 0
  76              		.loc 1 58 1 is_stmt 0 view .LVU6
  77 0000 08B5     		push	{r3, lr}
  78              	.LCFI0:
  79              		.cfi_def_cfa_offset 8
  80              		.cfi_offset 3, -8
  81              		.cfi_offset 14, -4
  59:syscalls.c    **** 	errno = EINVAL;
  82              		.loc 1 59 2 is_stmt 1 view .LVU7
  83 0002 FFF7FEFF 		bl	__errno
  84              	.LVL1:
  85              		.loc 1 59 8 is_stmt 0 view .LVU8
  86 0006 1623     		movs	r3, #22
  87 0008 0360     		str	r3, [r0]
  60:syscalls.c    **** 	return -1;
  88              		.loc 1 60 2 is_stmt 1 view .LVU9
  61:syscalls.c    **** }
  89              		.loc 1 61 1 is_stmt 0 view .LVU10
  90 000a 4FF0FF30 		mov	r0, #-1
  91 000e 08BD     		pop	{r3, pc}
  92              		.cfi_endproc
  93              	.LFE27:
  95              		.section	.text._exit,"ax",%progbits
  96              		.align	1
  97              		.global	_exit
  98              		.syntax unified
  99              		.thumb
 100              		.thumb_func
 101              		.fpu fpv4-sp-d16
 103              	_exit:
 104              	.LVL2:
 105              	.LFB28:
  62:syscalls.c    **** 
  63:syscalls.c    **** void _exit (int status)
  64:syscalls.c    **** {
 106              		.loc 1 64 1 is_stmt 1 view -0
 107              		.cfi_startproc
 108              		@ Volatile: function does not return.
 109              		@ args = 0, pretend = 0, frame = 0
 110              		@ frame_needed = 0, uses_anonymous_args = 0
 111              		.loc 1 64 1 is_stmt 0 view .LVU12
 112 0000 08B5     		push	{r3, lr}
 113              	.LCFI1:
 114              		.cfi_def_cfa_offset 8
ARM GAS  C:\Users\mikal\AppData\Local\Temp\ccMEung6.s 			page 4


 115              		.cfi_offset 3, -8
 116              		.cfi_offset 14, -4
  65:syscalls.c    **** 	_kill(status, -1);
 117              		.loc 1 65 2 is_stmt 1 view .LVU13
 118 0002 4FF0FF31 		mov	r1, #-1
 119 0006 FFF7FEFF 		bl	_kill
 120              	.LVL3:
 121              	.L6:
  66:syscalls.c    **** 	while (1) {}		/* Make sure we hang here */
 122              		.loc 1 66 2 discriminator 1 view .LVU14
 123              		.loc 1 66 13 discriminator 1 view .LVU15
 124              		.loc 1 66 8 discriminator 1 view .LVU16
 125 000a FEE7     		b	.L6
 126              		.cfi_endproc
 127              	.LFE28:
 129              		.section	.text._read,"ax",%progbits
 130              		.align	1
 131              		.weak	_read
 132              		.syntax unified
 133              		.thumb
 134              		.thumb_func
 135              		.fpu fpv4-sp-d16
 137              	_read:
 138              	.LVL4:
 139              	.LFB29:
  67:syscalls.c    **** }
  68:syscalls.c    **** 
  69:syscalls.c    **** __attribute__((weak)) int _read(int file, char *ptr, int len)
  70:syscalls.c    **** {
 140              		.loc 1 70 1 view -0
 141              		.cfi_startproc
 142              		@ args = 0, pretend = 0, frame = 0
 143              		@ frame_needed = 0, uses_anonymous_args = 0
 144              		.loc 1 70 1 is_stmt 0 view .LVU18
 145 0000 70B5     		push	{r4, r5, r6, lr}
 146              	.LCFI2:
 147              		.cfi_def_cfa_offset 16
 148              		.cfi_offset 4, -16
 149              		.cfi_offset 5, -12
 150              		.cfi_offset 6, -8
 151              		.cfi_offset 14, -4
 152 0002 0C46     		mov	r4, r1
 153 0004 1646     		mov	r6, r2
  71:syscalls.c    **** 	int DataIdx;
 154              		.loc 1 71 2 is_stmt 1 view .LVU19
  72:syscalls.c    **** 
  73:syscalls.c    **** 	for (DataIdx = 0; DataIdx < len; DataIdx++)
 155              		.loc 1 73 2 view .LVU20
 156              	.LVL5:
 157              		.loc 1 73 15 is_stmt 0 view .LVU21
 158 0006 0025     		movs	r5, #0
 159              		.loc 1 73 2 view .LVU22
 160 0008 06E0     		b	.L9
 161              	.LVL6:
 162              	.L10:
  74:syscalls.c    **** 	{
  75:syscalls.c    **** 		*ptr++ = __io_getchar();
ARM GAS  C:\Users\mikal\AppData\Local\Temp\ccMEung6.s 			page 5


 163              		.loc 1 75 3 is_stmt 1 discriminator 3 view .LVU23
 164              		.loc 1 75 12 is_stmt 0 discriminator 3 view .LVU24
 165 000a FFF7FEFF 		bl	__io_getchar
 166              	.LVL7:
 167              		.loc 1 75 7 discriminator 3 view .LVU25
 168 000e 2146     		mov	r1, r4
 169              	.LVL8:
 170              		.loc 1 75 10 discriminator 3 view .LVU26
 171 0010 01F8010B 		strb	r0, [r1], #1
 172              	.LVL9:
  73:syscalls.c    **** 	{
 173              		.loc 1 73 35 is_stmt 1 discriminator 3 view .LVU27
  73:syscalls.c    **** 	{
 174              		.loc 1 73 42 is_stmt 0 discriminator 3 view .LVU28
 175 0014 0135     		adds	r5, r5, #1
 176              	.LVL10:
 177              		.loc 1 75 7 discriminator 3 view .LVU29
 178 0016 0C46     		mov	r4, r1
 179              	.LVL11:
 180              	.L9:
  73:syscalls.c    **** 	{
 181              		.loc 1 73 20 is_stmt 1 discriminator 1 view .LVU30
  73:syscalls.c    **** 	{
 182              		.loc 1 73 2 is_stmt 0 discriminator 1 view .LVU31
 183 0018 B542     		cmp	r5, r6
 184 001a F6DB     		blt	.L10
  76:syscalls.c    **** 	}
  77:syscalls.c    **** 
  78:syscalls.c    **** return len;
 185              		.loc 1 78 1 is_stmt 1 view .LVU32
  79:syscalls.c    **** }
 186              		.loc 1 79 1 is_stmt 0 view .LVU33
 187 001c 3046     		mov	r0, r6
 188 001e 70BD     		pop	{r4, r5, r6, pc}
 189              		.loc 1 79 1 view .LVU34
 190              		.cfi_endproc
 191              	.LFE29:
 193              		.section	.text._write,"ax",%progbits
 194              		.align	1
 195              		.weak	_write
 196              		.syntax unified
 197              		.thumb
 198              		.thumb_func
 199              		.fpu fpv4-sp-d16
 201              	_write:
 202              	.LVL12:
 203              	.LFB30:
  80:syscalls.c    **** 
  81:syscalls.c    **** __attribute__((weak)) int _write(int file, char *ptr, int len)
  82:syscalls.c    **** {
 204              		.loc 1 82 1 is_stmt 1 view -0
 205              		.cfi_startproc
 206              		@ args = 0, pretend = 0, frame = 0
 207              		@ frame_needed = 0, uses_anonymous_args = 0
 208              		.loc 1 82 1 is_stmt 0 view .LVU36
 209 0000 70B5     		push	{r4, r5, r6, lr}
 210              	.LCFI3:
ARM GAS  C:\Users\mikal\AppData\Local\Temp\ccMEung6.s 			page 6


 211              		.cfi_def_cfa_offset 16
 212              		.cfi_offset 4, -16
 213              		.cfi_offset 5, -12
 214              		.cfi_offset 6, -8
 215              		.cfi_offset 14, -4
 216 0002 0C46     		mov	r4, r1
 217 0004 1646     		mov	r6, r2
  83:syscalls.c    **** 	int DataIdx;
 218              		.loc 1 83 2 is_stmt 1 view .LVU37
  84:syscalls.c    **** 
  85:syscalls.c    **** 	for (DataIdx = 0; DataIdx < len; DataIdx++)
 219              		.loc 1 85 2 view .LVU38
 220              	.LVL13:
 221              		.loc 1 85 15 is_stmt 0 view .LVU39
 222 0006 0025     		movs	r5, #0
 223              		.loc 1 85 2 view .LVU40
 224 0008 04E0     		b	.L13
 225              	.LVL14:
 226              	.L14:
  86:syscalls.c    **** 	{
  87:syscalls.c    **** 		__io_putchar(*ptr++);
 227              		.loc 1 87 3 is_stmt 1 discriminator 3 view .LVU41
 228              		.loc 1 87 3 is_stmt 0 discriminator 3 view .LVU42
 229 000a 14F8010B 		ldrb	r0, [r4], #1	@ zero_extendqisi2
 230              	.LVL15:
 231              		.loc 1 87 3 discriminator 3 view .LVU43
 232 000e FFF7FEFF 		bl	__io_putchar
 233              	.LVL16:
  85:syscalls.c    **** 	{
 234              		.loc 1 85 35 is_stmt 1 discriminator 3 view .LVU44
  85:syscalls.c    **** 	{
 235              		.loc 1 85 42 is_stmt 0 discriminator 3 view .LVU45
 236 0012 0135     		adds	r5, r5, #1
 237              	.LVL17:
 238              	.L13:
  85:syscalls.c    **** 	{
 239              		.loc 1 85 20 is_stmt 1 discriminator 1 view .LVU46
  85:syscalls.c    **** 	{
 240              		.loc 1 85 2 is_stmt 0 discriminator 1 view .LVU47
 241 0014 B542     		cmp	r5, r6
 242 0016 F8DB     		blt	.L14
  88:syscalls.c    **** 	}
  89:syscalls.c    **** 	return len;
 243              		.loc 1 89 2 is_stmt 1 view .LVU48
  90:syscalls.c    **** }
 244              		.loc 1 90 1 is_stmt 0 view .LVU49
 245 0018 3046     		mov	r0, r6
 246 001a 70BD     		pop	{r4, r5, r6, pc}
 247              		.loc 1 90 1 view .LVU50
 248              		.cfi_endproc
 249              	.LFE30:
 251              		.section	.text._close,"ax",%progbits
 252              		.align	1
 253              		.global	_close
 254              		.syntax unified
 255              		.thumb
 256              		.thumb_func
ARM GAS  C:\Users\mikal\AppData\Local\Temp\ccMEung6.s 			page 7


 257              		.fpu fpv4-sp-d16
 259              	_close:
 260              	.LVL18:
 261              	.LFB31:
  91:syscalls.c    **** 
  92:syscalls.c    **** int _close(int file)
  93:syscalls.c    **** {
 262              		.loc 1 93 1 is_stmt 1 view -0
 263              		.cfi_startproc
 264              		@ args = 0, pretend = 0, frame = 0
 265              		@ frame_needed = 0, uses_anonymous_args = 0
 266              		@ link register save eliminated.
  94:syscalls.c    **** 	return -1;
 267              		.loc 1 94 2 view .LVU52
  95:syscalls.c    **** }
 268              		.loc 1 95 1 is_stmt 0 view .LVU53
 269 0000 4FF0FF30 		mov	r0, #-1
 270              	.LVL19:
 271              		.loc 1 95 1 view .LVU54
 272 0004 7047     		bx	lr
 273              		.cfi_endproc
 274              	.LFE31:
 276              		.section	.text._fstat,"ax",%progbits
 277              		.align	1
 278              		.global	_fstat
 279              		.syntax unified
 280              		.thumb
 281              		.thumb_func
 282              		.fpu fpv4-sp-d16
 284              	_fstat:
 285              	.LVL20:
 286              	.LFB32:
  96:syscalls.c    **** 
  97:syscalls.c    **** 
  98:syscalls.c    **** int _fstat(int file, struct stat *st)
  99:syscalls.c    **** {
 287              		.loc 1 99 1 is_stmt 1 view -0
 288              		.cfi_startproc
 289              		@ args = 0, pretend = 0, frame = 0
 290              		@ frame_needed = 0, uses_anonymous_args = 0
 291              		@ link register save eliminated.
 100:syscalls.c    **** 	st->st_mode = S_IFCHR;
 292              		.loc 1 100 2 view .LVU56
 293              		.loc 1 100 14 is_stmt 0 view .LVU57
 294 0000 4FF40053 		mov	r3, #8192
 295 0004 4B60     		str	r3, [r1, #4]
 101:syscalls.c    **** 	return 0;
 296              		.loc 1 101 2 is_stmt 1 view .LVU58
 102:syscalls.c    **** }
 297              		.loc 1 102 1 is_stmt 0 view .LVU59
 298 0006 0020     		movs	r0, #0
 299              	.LVL21:
 300              		.loc 1 102 1 view .LVU60
 301 0008 7047     		bx	lr
 302              		.cfi_endproc
 303              	.LFE32:
 305              		.section	.text._isatty,"ax",%progbits
ARM GAS  C:\Users\mikal\AppData\Local\Temp\ccMEung6.s 			page 8


 306              		.align	1
 307              		.global	_isatty
 308              		.syntax unified
 309              		.thumb
 310              		.thumb_func
 311              		.fpu fpv4-sp-d16
 313              	_isatty:
 314              	.LVL22:
 315              	.LFB33:
 103:syscalls.c    **** 
 104:syscalls.c    **** int _isatty(int file)
 105:syscalls.c    **** {
 316              		.loc 1 105 1 is_stmt 1 view -0
 317              		.cfi_startproc
 318              		@ args = 0, pretend = 0, frame = 0
 319              		@ frame_needed = 0, uses_anonymous_args = 0
 320              		@ link register save eliminated.
 106:syscalls.c    **** 	return 1;
 321              		.loc 1 106 2 view .LVU62
 107:syscalls.c    **** }
 322              		.loc 1 107 1 is_stmt 0 view .LVU63
 323 0000 0120     		movs	r0, #1
 324              	.LVL23:
 325              		.loc 1 107 1 view .LVU64
 326 0002 7047     		bx	lr
 327              		.cfi_endproc
 328              	.LFE33:
 330              		.section	.text._lseek,"ax",%progbits
 331              		.align	1
 332              		.global	_lseek
 333              		.syntax unified
 334              		.thumb
 335              		.thumb_func
 336              		.fpu fpv4-sp-d16
 338              	_lseek:
 339              	.LVL24:
 340              	.LFB34:
 108:syscalls.c    **** 
 109:syscalls.c    **** int _lseek(int file, int ptr, int dir)
 110:syscalls.c    **** {
 341              		.loc 1 110 1 is_stmt 1 view -0
 342              		.cfi_startproc
 343              		@ args = 0, pretend = 0, frame = 0
 344              		@ frame_needed = 0, uses_anonymous_args = 0
 345              		@ link register save eliminated.
 111:syscalls.c    **** 	return 0;
 346              		.loc 1 111 2 view .LVU66
 112:syscalls.c    **** }
 347              		.loc 1 112 1 is_stmt 0 view .LVU67
 348 0000 0020     		movs	r0, #0
 349              	.LVL25:
 350              		.loc 1 112 1 view .LVU68
 351 0002 7047     		bx	lr
 352              		.cfi_endproc
 353              	.LFE34:
 355              		.section	.text._open,"ax",%progbits
 356              		.align	1
ARM GAS  C:\Users\mikal\AppData\Local\Temp\ccMEung6.s 			page 9


 357              		.global	_open
 358              		.syntax unified
 359              		.thumb
 360              		.thumb_func
 361              		.fpu fpv4-sp-d16
 363              	_open:
 364              	.LVL26:
 365              	.LFB35:
 113:syscalls.c    **** 
 114:syscalls.c    **** int _open(char *path, int flags, ...)
 115:syscalls.c    **** {
 366              		.loc 1 115 1 is_stmt 1 view -0
 367              		.cfi_startproc
 368              		@ args = 4, pretend = 12, frame = 0
 369              		@ frame_needed = 0, uses_anonymous_args = 1
 370              		@ link register save eliminated.
 371              		.loc 1 115 1 is_stmt 0 view .LVU70
 372 0000 0EB4     		push	{r1, r2, r3}
 373              	.LCFI4:
 374              		.cfi_def_cfa_offset 12
 375              		.cfi_offset 1, -12
 376              		.cfi_offset 2, -8
 377              		.cfi_offset 3, -4
 116:syscalls.c    **** 	/* Pretend like we always fail */
 117:syscalls.c    **** 	return -1;
 378              		.loc 1 117 2 is_stmt 1 view .LVU71
 118:syscalls.c    **** }
 379              		.loc 1 118 1 is_stmt 0 view .LVU72
 380 0002 4FF0FF30 		mov	r0, #-1
 381              	.LVL27:
 382              		.loc 1 118 1 view .LVU73
 383 0006 03B0     		add	sp, sp, #12
 384              	.LCFI5:
 385              		.cfi_restore 3
 386              		.cfi_restore 2
 387              		.cfi_restore 1
 388              		.cfi_def_cfa_offset 0
 389 0008 7047     		bx	lr
 390              		.cfi_endproc
 391              	.LFE35:
 393              		.section	.text._wait,"ax",%progbits
 394              		.align	1
 395              		.global	_wait
 396              		.syntax unified
 397              		.thumb
 398              		.thumb_func
 399              		.fpu fpv4-sp-d16
 401              	_wait:
 402              	.LVL28:
 403              	.LFB36:
 119:syscalls.c    **** 
 120:syscalls.c    **** int _wait(int *status)
 121:syscalls.c    **** {
 404              		.loc 1 121 1 is_stmt 1 view -0
 405              		.cfi_startproc
 406              		@ args = 0, pretend = 0, frame = 0
 407              		@ frame_needed = 0, uses_anonymous_args = 0
ARM GAS  C:\Users\mikal\AppData\Local\Temp\ccMEung6.s 			page 10


 408              		.loc 1 121 1 is_stmt 0 view .LVU75
 409 0000 08B5     		push	{r3, lr}
 410              	.LCFI6:
 411              		.cfi_def_cfa_offset 8
 412              		.cfi_offset 3, -8
 413              		.cfi_offset 14, -4
 122:syscalls.c    **** 	errno = ECHILD;
 414              		.loc 1 122 2 is_stmt 1 view .LVU76
 415 0002 FFF7FEFF 		bl	__errno
 416              	.LVL29:
 417              		.loc 1 122 8 is_stmt 0 view .LVU77
 418 0006 0A23     		movs	r3, #10
 419 0008 0360     		str	r3, [r0]
 123:syscalls.c    **** 	return -1;
 420              		.loc 1 123 2 is_stmt 1 view .LVU78
 124:syscalls.c    **** }
 421              		.loc 1 124 1 is_stmt 0 view .LVU79
 422 000a 4FF0FF30 		mov	r0, #-1
 423 000e 08BD     		pop	{r3, pc}
 424              		.cfi_endproc
 425              	.LFE36:
 427              		.section	.text._unlink,"ax",%progbits
 428              		.align	1
 429              		.global	_unlink
 430              		.syntax unified
 431              		.thumb
 432              		.thumb_func
 433              		.fpu fpv4-sp-d16
 435              	_unlink:
 436              	.LVL30:
 437              	.LFB37:
 125:syscalls.c    **** 
 126:syscalls.c    **** int _unlink(char *name)
 127:syscalls.c    **** {
 438              		.loc 1 127 1 is_stmt 1 view -0
 439              		.cfi_startproc
 440              		@ args = 0, pretend = 0, frame = 0
 441              		@ frame_needed = 0, uses_anonymous_args = 0
 442              		.loc 1 127 1 is_stmt 0 view .LVU81
 443 0000 08B5     		push	{r3, lr}
 444              	.LCFI7:
 445              		.cfi_def_cfa_offset 8
 446              		.cfi_offset 3, -8
 447              		.cfi_offset 14, -4
 128:syscalls.c    **** 	errno = ENOENT;
 448              		.loc 1 128 2 is_stmt 1 view .LVU82
 449 0002 FFF7FEFF 		bl	__errno
 450              	.LVL31:
 451              		.loc 1 128 8 is_stmt 0 view .LVU83
 452 0006 0223     		movs	r3, #2
 453 0008 0360     		str	r3, [r0]
 129:syscalls.c    **** 	return -1;
 454              		.loc 1 129 2 is_stmt 1 view .LVU84
 130:syscalls.c    **** }
 455              		.loc 1 130 1 is_stmt 0 view .LVU85
 456 000a 4FF0FF30 		mov	r0, #-1
 457 000e 08BD     		pop	{r3, pc}
ARM GAS  C:\Users\mikal\AppData\Local\Temp\ccMEung6.s 			page 11


 458              		.cfi_endproc
 459              	.LFE37:
 461              		.section	.text._times,"ax",%progbits
 462              		.align	1
 463              		.global	_times
 464              		.syntax unified
 465              		.thumb
 466              		.thumb_func
 467              		.fpu fpv4-sp-d16
 469              	_times:
 470              	.LVL32:
 471              	.LFB38:
 131:syscalls.c    **** 
 132:syscalls.c    **** int _times(struct tms *buf)
 133:syscalls.c    **** {
 472              		.loc 1 133 1 is_stmt 1 view -0
 473              		.cfi_startproc
 474              		@ args = 0, pretend = 0, frame = 0
 475              		@ frame_needed = 0, uses_anonymous_args = 0
 476              		@ link register save eliminated.
 134:syscalls.c    **** 	return -1;
 477              		.loc 1 134 2 view .LVU87
 135:syscalls.c    **** }
 478              		.loc 1 135 1 is_stmt 0 view .LVU88
 479 0000 4FF0FF30 		mov	r0, #-1
 480              	.LVL33:
 481              		.loc 1 135 1 view .LVU89
 482 0004 7047     		bx	lr
 483              		.cfi_endproc
 484              	.LFE38:
 486              		.section	.text._stat,"ax",%progbits
 487              		.align	1
 488              		.global	_stat
 489              		.syntax unified
 490              		.thumb
 491              		.thumb_func
 492              		.fpu fpv4-sp-d16
 494              	_stat:
 495              	.LVL34:
 496              	.LFB39:
 136:syscalls.c    **** 
 137:syscalls.c    **** int _stat(char *file, struct stat *st)
 138:syscalls.c    **** {
 497              		.loc 1 138 1 is_stmt 1 view -0
 498              		.cfi_startproc
 499              		@ args = 0, pretend = 0, frame = 0
 500              		@ frame_needed = 0, uses_anonymous_args = 0
 501              		@ link register save eliminated.
 139:syscalls.c    **** 	st->st_mode = S_IFCHR;
 502              		.loc 1 139 2 view .LVU91
 503              		.loc 1 139 14 is_stmt 0 view .LVU92
 504 0000 4FF40053 		mov	r3, #8192
 505 0004 4B60     		str	r3, [r1, #4]
 140:syscalls.c    **** 	return 0;
 506              		.loc 1 140 2 is_stmt 1 view .LVU93
 141:syscalls.c    **** }
 507              		.loc 1 141 1 is_stmt 0 view .LVU94
ARM GAS  C:\Users\mikal\AppData\Local\Temp\ccMEung6.s 			page 12


 508 0006 0020     		movs	r0, #0
 509              	.LVL35:
 510              		.loc 1 141 1 view .LVU95
 511 0008 7047     		bx	lr
 512              		.cfi_endproc
 513              	.LFE39:
 515              		.section	.text._link,"ax",%progbits
 516              		.align	1
 517              		.global	_link
 518              		.syntax unified
 519              		.thumb
 520              		.thumb_func
 521              		.fpu fpv4-sp-d16
 523              	_link:
 524              	.LVL36:
 525              	.LFB40:
 142:syscalls.c    **** 
 143:syscalls.c    **** int _link(char *old, char *new)
 144:syscalls.c    **** {
 526              		.loc 1 144 1 is_stmt 1 view -0
 527              		.cfi_startproc
 528              		@ args = 0, pretend = 0, frame = 0
 529              		@ frame_needed = 0, uses_anonymous_args = 0
 530              		.loc 1 144 1 is_stmt 0 view .LVU97
 531 0000 08B5     		push	{r3, lr}
 532              	.LCFI8:
 533              		.cfi_def_cfa_offset 8
 534              		.cfi_offset 3, -8
 535              		.cfi_offset 14, -4
 145:syscalls.c    **** 	errno = EMLINK;
 536              		.loc 1 145 2 is_stmt 1 view .LVU98
 537 0002 FFF7FEFF 		bl	__errno
 538              	.LVL37:
 539              		.loc 1 145 8 is_stmt 0 view .LVU99
 540 0006 1F23     		movs	r3, #31
 541 0008 0360     		str	r3, [r0]
 146:syscalls.c    **** 	return -1;
 542              		.loc 1 146 2 is_stmt 1 view .LVU100
 147:syscalls.c    **** }
 543              		.loc 1 147 1 is_stmt 0 view .LVU101
 544 000a 4FF0FF30 		mov	r0, #-1
 545 000e 08BD     		pop	{r3, pc}
 546              		.cfi_endproc
 547              	.LFE40:
 549              		.section	.text._fork,"ax",%progbits
 550              		.align	1
 551              		.global	_fork
 552              		.syntax unified
 553              		.thumb
 554              		.thumb_func
 555              		.fpu fpv4-sp-d16
 557              	_fork:
 558              	.LFB41:
 148:syscalls.c    **** 
 149:syscalls.c    **** int _fork(void)
 150:syscalls.c    **** {
 559              		.loc 1 150 1 is_stmt 1 view -0
ARM GAS  C:\Users\mikal\AppData\Local\Temp\ccMEung6.s 			page 13


 560              		.cfi_startproc
 561              		@ args = 0, pretend = 0, frame = 0
 562              		@ frame_needed = 0, uses_anonymous_args = 0
 563 0000 08B5     		push	{r3, lr}
 564              	.LCFI9:
 565              		.cfi_def_cfa_offset 8
 566              		.cfi_offset 3, -8
 567              		.cfi_offset 14, -4
 151:syscalls.c    **** 	errno = EAGAIN;
 568              		.loc 1 151 2 view .LVU103
 569 0002 FFF7FEFF 		bl	__errno
 570              	.LVL38:
 571              		.loc 1 151 8 is_stmt 0 view .LVU104
 572 0006 0B23     		movs	r3, #11
 573 0008 0360     		str	r3, [r0]
 152:syscalls.c    **** 	return -1;
 574              		.loc 1 152 2 is_stmt 1 view .LVU105
 153:syscalls.c    **** }
 575              		.loc 1 153 1 is_stmt 0 view .LVU106
 576 000a 4FF0FF30 		mov	r0, #-1
 577 000e 08BD     		pop	{r3, pc}
 578              		.cfi_endproc
 579              	.LFE41:
 581              		.section	.text._execve,"ax",%progbits
 582              		.align	1
 583              		.global	_execve
 584              		.syntax unified
 585              		.thumb
 586              		.thumb_func
 587              		.fpu fpv4-sp-d16
 589              	_execve:
 590              	.LVL39:
 591              	.LFB42:
 154:syscalls.c    **** 
 155:syscalls.c    **** int _execve(char *name, char **argv, char **env)
 156:syscalls.c    **** {
 592              		.loc 1 156 1 is_stmt 1 view -0
 593              		.cfi_startproc
 594              		@ args = 0, pretend = 0, frame = 0
 595              		@ frame_needed = 0, uses_anonymous_args = 0
 596              		.loc 1 156 1 is_stmt 0 view .LVU108
 597 0000 08B5     		push	{r3, lr}
 598              	.LCFI10:
 599              		.cfi_def_cfa_offset 8
 600              		.cfi_offset 3, -8
 601              		.cfi_offset 14, -4
 157:syscalls.c    **** 	errno = ENOMEM;
 602              		.loc 1 157 2 is_stmt 1 view .LVU109
 603 0002 FFF7FEFF 		bl	__errno
 604              	.LVL40:
 605              		.loc 1 157 8 is_stmt 0 view .LVU110
 606 0006 0C23     		movs	r3, #12
 607 0008 0360     		str	r3, [r0]
 158:syscalls.c    **** 	return -1;
 608              		.loc 1 158 2 is_stmt 1 view .LVU111
 159:syscalls.c    **** }
 609              		.loc 1 159 1 is_stmt 0 view .LVU112
ARM GAS  C:\Users\mikal\AppData\Local\Temp\ccMEung6.s 			page 14


 610 000a 4FF0FF30 		mov	r0, #-1
 611 000e 08BD     		pop	{r3, pc}
 612              		.cfi_endproc
 613              	.LFE42:
 615              		.global	environ
 616              		.global	__env
 617              		.section	.bss.__env,"aw",%nobits
 618              		.align	2
 621              	__env:
 622 0000 00000000 		.space	4
 623              		.section	.data.environ,"aw"
 624              		.align	2
 627              	environ:
 628 0000 00000000 		.word	__env
 629              		.weak	__io_putchar
 630              		.weak	__io_getchar
 631              		.text
 632              	.Letext0:
 633              		.file 2 "c:\\gnu arm embedded toolchain\\10 2021.07\\arm-none-eabi\\include\\machine\\_default_typ
 634              		.file 3 "c:\\gnu arm embedded toolchain\\10 2021.07\\arm-none-eabi\\include\\sys\\_types.h"
 635              		.file 4 "c:\\gnu arm embedded toolchain\\10 2021.07\\arm-none-eabi\\include\\sys\\_timeval.h"
 636              		.file 5 "c:\\gnu arm embedded toolchain\\10 2021.07\\arm-none-eabi\\include\\sys\\_timespec.h"
 637              		.file 6 "c:\\gnu arm embedded toolchain\\10 2021.07\\arm-none-eabi\\include\\sys\\types.h"
 638              		.file 7 "c:\\gnu arm embedded toolchain\\10 2021.07\\arm-none-eabi\\include\\sys\\stat.h"
 639              		.file 8 "c:\\gnu arm embedded toolchain\\10 2021.07\\arm-none-eabi\\include\\sys\\times.h"
 640              		.file 9 "c:\\gnu arm embedded toolchain\\10 2021.07\\arm-none-eabi\\include\\sys\\errno.h"
ARM GAS  C:\Users\mikal\AppData\Local\Temp\ccMEung6.s 			page 15

