ARM GAS  C:\Users\mikal\AppData\Local\Temp\ccEi5RM2.s 			page 1


   1              		.cpu cortex-m4
   2              		.eabi_attribute 27, 1
   3              		.eabi_attribute 28, 1
   4              		.eabi_attribute 20, 1
   5              		.eabi_attribute 21, 1
   6              		.eabi_attribute 23, 3
   7              		.eabi_attribute 24, 1
   8              		.eabi_attribute 25, 1
   9              		.eabi_attribute 26, 1
  10              		.eabi_attribute 30, 1
  11              		.eabi_attribute 34, 1
  12              		.eabi_attribute 18, 4
  13              		.file	"system_stm32l4xx.c"
  14              		.text
  15              	.Ltext0:
  16              		.cfi_sections	.debug_frame
  17              		.section	.text.SystemInit,"ax",%progbits
  18              		.align	1
  19              		.global	SystemInit
  20              		.arch armv7e-m
  21              		.syntax unified
  22              		.thumb
  23              		.thumb_func
  24              		.fpu fpv4-sp-d16
  26              	SystemInit:
  27              	.LFB132:
  28              		.file 1 "system_stm32l4xx.c"
   1:system_stm32l4xx.c **** /**
   2:system_stm32l4xx.c ****   ******************************************************************************
   3:system_stm32l4xx.c ****   * @file    system_stm32l4xx.c
   4:system_stm32l4xx.c ****   * @author  MCD Application Team
   5:system_stm32l4xx.c ****   * @brief   CMSIS Cortex-M4 Device Peripheral Access Layer System Source File
   6:system_stm32l4xx.c ****   *
   7:system_stm32l4xx.c ****   *   This file provides two functions and one global variable to be called from
   8:system_stm32l4xx.c ****   *   user application:
   9:system_stm32l4xx.c ****   *      - SystemInit(): This function is called at startup just after reset and
  10:system_stm32l4xx.c ****   *                      before branch to main program. This call is made inside
  11:system_stm32l4xx.c ****   *                      the "startup_stm32l4xx.s" file.
  12:system_stm32l4xx.c ****   *
  13:system_stm32l4xx.c ****   *      - SystemCoreClock variable: Contains the core clock (HCLK), it can be used
  14:system_stm32l4xx.c ****   *                                  by the user application to setup the SysTick
  15:system_stm32l4xx.c ****   *                                  timer or configure other parameters.
  16:system_stm32l4xx.c ****   *
  17:system_stm32l4xx.c ****   *      - SystemCoreClockUpdate(): Updates the variable SystemCoreClock and must
  18:system_stm32l4xx.c ****   *                                 be called whenever the core clock is changed
  19:system_stm32l4xx.c ****   *                                 during program execution.
  20:system_stm32l4xx.c ****   *
  21:system_stm32l4xx.c ****   *   After each device reset the MSI (4 MHz) is used as system clock source.
  22:system_stm32l4xx.c ****   *   Then SystemInit() function is called, in "startup_stm32l4xx.s" file, to
  23:system_stm32l4xx.c ****   *   configure the system clock before to branch to main program.
  24:system_stm32l4xx.c ****   *
  25:system_stm32l4xx.c ****   *   This file configures the system clock as follows:
  26:system_stm32l4xx.c ****   *=============================================================================
  27:system_stm32l4xx.c ****   *-----------------------------------------------------------------------------
  28:system_stm32l4xx.c ****   *        System Clock source                    | MSI
  29:system_stm32l4xx.c ****   *-----------------------------------------------------------------------------
  30:system_stm32l4xx.c ****   *        SYSCLK(Hz)                             | 4000000
ARM GAS  C:\Users\mikal\AppData\Local\Temp\ccEi5RM2.s 			page 2


  31:system_stm32l4xx.c ****   *-----------------------------------------------------------------------------
  32:system_stm32l4xx.c ****   *        HCLK(Hz)                               | 4000000
  33:system_stm32l4xx.c ****   *-----------------------------------------------------------------------------
  34:system_stm32l4xx.c ****   *        AHB Prescaler                          | 1
  35:system_stm32l4xx.c ****   *-----------------------------------------------------------------------------
  36:system_stm32l4xx.c ****   *        APB1 Prescaler                         | 1
  37:system_stm32l4xx.c ****   *-----------------------------------------------------------------------------
  38:system_stm32l4xx.c ****   *        APB2 Prescaler                         | 1
  39:system_stm32l4xx.c ****   *-----------------------------------------------------------------------------
  40:system_stm32l4xx.c ****   *        PLL_M                                  | 1
  41:system_stm32l4xx.c ****   *-----------------------------------------------------------------------------
  42:system_stm32l4xx.c ****   *        PLL_N                                  | 8
  43:system_stm32l4xx.c ****   *-----------------------------------------------------------------------------
  44:system_stm32l4xx.c ****   *        PLL_P                                  | 7
  45:system_stm32l4xx.c ****   *-----------------------------------------------------------------------------
  46:system_stm32l4xx.c ****   *        PLL_Q                                  | 2
  47:system_stm32l4xx.c ****   *-----------------------------------------------------------------------------
  48:system_stm32l4xx.c ****   *        PLL_R                                  | 2
  49:system_stm32l4xx.c ****   *-----------------------------------------------------------------------------
  50:system_stm32l4xx.c ****   *        PLLSAI1_P                              | NA
  51:system_stm32l4xx.c ****   *-----------------------------------------------------------------------------
  52:system_stm32l4xx.c ****   *        PLLSAI1_Q                              | NA
  53:system_stm32l4xx.c ****   *-----------------------------------------------------------------------------
  54:system_stm32l4xx.c ****   *        PLLSAI1_R                              | NA
  55:system_stm32l4xx.c ****   *-----------------------------------------------------------------------------
  56:system_stm32l4xx.c ****   *        PLLSAI2_P                              | NA
  57:system_stm32l4xx.c ****   *-----------------------------------------------------------------------------
  58:system_stm32l4xx.c ****   *        PLLSAI2_Q                              | NA
  59:system_stm32l4xx.c ****   *-----------------------------------------------------------------------------
  60:system_stm32l4xx.c ****   *        PLLSAI2_R                              | NA
  61:system_stm32l4xx.c ****   *-----------------------------------------------------------------------------
  62:system_stm32l4xx.c ****   *        Require 48MHz for USB OTG FS,          | Disabled
  63:system_stm32l4xx.c ****   *        SDIO and RNG clock                     |
  64:system_stm32l4xx.c ****   *-----------------------------------------------------------------------------
  65:system_stm32l4xx.c ****   *=============================================================================
  66:system_stm32l4xx.c ****   ******************************************************************************
  67:system_stm32l4xx.c ****   * @attention
  68:system_stm32l4xx.c ****   *
  69:system_stm32l4xx.c ****   * <h2><center>&copy; Copyright (c) 2017 STMicroelectronics.
  70:system_stm32l4xx.c ****   * All rights reserved.</center></h2>
  71:system_stm32l4xx.c ****   *
  72:system_stm32l4xx.c ****   * This software component is licensed by ST under Apache License, Version 2.0,
  73:system_stm32l4xx.c ****   * the "License"; You may not use this file except in compliance with the
  74:system_stm32l4xx.c ****   * License. You may obtain a copy of the License at:
  75:system_stm32l4xx.c ****   *                        opensource.org/licenses/Apache-2.0
  76:system_stm32l4xx.c ****   *
  77:system_stm32l4xx.c ****   ******************************************************************************
  78:system_stm32l4xx.c ****   */
  79:system_stm32l4xx.c **** 
  80:system_stm32l4xx.c **** /** @addtogroup CMSIS
  81:system_stm32l4xx.c ****   * @{
  82:system_stm32l4xx.c ****   */
  83:system_stm32l4xx.c **** 
  84:system_stm32l4xx.c **** /** @addtogroup stm32l4xx_system
  85:system_stm32l4xx.c ****   * @{
  86:system_stm32l4xx.c ****   */
  87:system_stm32l4xx.c **** 
ARM GAS  C:\Users\mikal\AppData\Local\Temp\ccEi5RM2.s 			page 3


  88:system_stm32l4xx.c **** /** @addtogroup STM32L4xx_System_Private_Includes
  89:system_stm32l4xx.c ****   * @{
  90:system_stm32l4xx.c ****   */
  91:system_stm32l4xx.c **** 
  92:system_stm32l4xx.c **** #include "stm32l4xx.h"
  93:system_stm32l4xx.c **** 
  94:system_stm32l4xx.c **** #if !defined  (HSE_VALUE)
  95:system_stm32l4xx.c ****   #define HSE_VALUE    8000000U  /*!< Value of the External oscillator in Hz */
  96:system_stm32l4xx.c **** #endif /* HSE_VALUE */
  97:system_stm32l4xx.c **** 
  98:system_stm32l4xx.c **** #if !defined  (MSI_VALUE)
  99:system_stm32l4xx.c ****   #define MSI_VALUE    4000000U  /*!< Value of the Internal oscillator in Hz*/
 100:system_stm32l4xx.c **** #endif /* MSI_VALUE */
 101:system_stm32l4xx.c **** 
 102:system_stm32l4xx.c **** #if !defined  (HSI_VALUE)
 103:system_stm32l4xx.c ****   #define HSI_VALUE    16000000U /*!< Value of the Internal oscillator in Hz*/
 104:system_stm32l4xx.c **** #endif /* HSI_VALUE */
 105:system_stm32l4xx.c **** 
 106:system_stm32l4xx.c **** /**
 107:system_stm32l4xx.c ****   * @}
 108:system_stm32l4xx.c ****   */
 109:system_stm32l4xx.c **** 
 110:system_stm32l4xx.c **** /** @addtogroup STM32L4xx_System_Private_TypesDefinitions
 111:system_stm32l4xx.c ****   * @{
 112:system_stm32l4xx.c ****   */
 113:system_stm32l4xx.c **** 
 114:system_stm32l4xx.c **** /**
 115:system_stm32l4xx.c ****   * @}
 116:system_stm32l4xx.c ****   */
 117:system_stm32l4xx.c **** 
 118:system_stm32l4xx.c **** /** @addtogroup STM32L4xx_System_Private_Defines
 119:system_stm32l4xx.c ****   * @{
 120:system_stm32l4xx.c ****   */
 121:system_stm32l4xx.c **** 
 122:system_stm32l4xx.c **** /************************* Miscellaneous Configuration ************************/
 123:system_stm32l4xx.c **** /*!< Uncomment the following line if you need to relocate your vector Table in
 124:system_stm32l4xx.c ****      Internal SRAM. */
 125:system_stm32l4xx.c **** /* #define VECT_TAB_SRAM */
 126:system_stm32l4xx.c **** #define VECT_TAB_OFFSET  0x00 /*!< Vector Table base offset field.
 127:system_stm32l4xx.c ****                                    This value must be a multiple of 0x200. */
 128:system_stm32l4xx.c **** /******************************************************************************/
 129:system_stm32l4xx.c **** /**
 130:system_stm32l4xx.c ****   * @}
 131:system_stm32l4xx.c ****   */
 132:system_stm32l4xx.c **** 
 133:system_stm32l4xx.c **** /** @addtogroup STM32L4xx_System_Private_Macros
 134:system_stm32l4xx.c ****   * @{
 135:system_stm32l4xx.c ****   */
 136:system_stm32l4xx.c **** 
 137:system_stm32l4xx.c **** /**
 138:system_stm32l4xx.c ****   * @}
 139:system_stm32l4xx.c ****   */
 140:system_stm32l4xx.c **** 
 141:system_stm32l4xx.c **** /** @addtogroup STM32L4xx_System_Private_Variables
 142:system_stm32l4xx.c ****   * @{
 143:system_stm32l4xx.c ****   */
 144:system_stm32l4xx.c ****   /* The SystemCoreClock variable is updated in three ways:
ARM GAS  C:\Users\mikal\AppData\Local\Temp\ccEi5RM2.s 			page 4


 145:system_stm32l4xx.c ****       1) by calling CMSIS function SystemCoreClockUpdate()
 146:system_stm32l4xx.c ****       2) by calling HAL API function HAL_RCC_GetHCLKFreq()
 147:system_stm32l4xx.c ****       3) each time HAL_RCC_ClockConfig() is called to configure the system clock frequency
 148:system_stm32l4xx.c ****          Note: If you use this function to configure the system clock; then there
 149:system_stm32l4xx.c ****                is no need to call the 2 first functions listed above, since SystemCoreClock
 150:system_stm32l4xx.c ****                variable is updated automatically.
 151:system_stm32l4xx.c ****   */
 152:system_stm32l4xx.c ****   uint32_t SystemCoreClock = 4000000U;
 153:system_stm32l4xx.c **** 
 154:system_stm32l4xx.c ****   const uint8_t  AHBPrescTable[16] = {0U, 0U, 0U, 0U, 0U, 0U, 0U, 0U, 1U, 2U, 3U, 4U, 6U, 7U, 8U, 9
 155:system_stm32l4xx.c ****   const uint8_t  APBPrescTable[8] =  {0U, 0U, 0U, 0U, 1U, 2U, 3U, 4U};
 156:system_stm32l4xx.c ****   const uint32_t MSIRangeTable[12] = {100000U,   200000U,   400000U,   800000U,  1000000U,  2000000
 157:system_stm32l4xx.c ****                                       4000000U, 8000000U, 16000000U, 24000000U, 32000000U, 48000000
 158:system_stm32l4xx.c **** /**
 159:system_stm32l4xx.c ****   * @}
 160:system_stm32l4xx.c ****   */
 161:system_stm32l4xx.c **** 
 162:system_stm32l4xx.c **** /** @addtogroup STM32L4xx_System_Private_FunctionPrototypes
 163:system_stm32l4xx.c ****   * @{
 164:system_stm32l4xx.c ****   */
 165:system_stm32l4xx.c **** 
 166:system_stm32l4xx.c **** /**
 167:system_stm32l4xx.c ****   * @}
 168:system_stm32l4xx.c ****   */
 169:system_stm32l4xx.c **** 
 170:system_stm32l4xx.c **** /** @addtogroup STM32L4xx_System_Private_Functions
 171:system_stm32l4xx.c ****   * @{
 172:system_stm32l4xx.c ****   */
 173:system_stm32l4xx.c **** 
 174:system_stm32l4xx.c **** /**
 175:system_stm32l4xx.c ****   * @brief  Setup the microcontroller system.
 176:system_stm32l4xx.c ****   * @param  None
 177:system_stm32l4xx.c ****   * @retval None
 178:system_stm32l4xx.c ****   */
 179:system_stm32l4xx.c **** 
 180:system_stm32l4xx.c **** void SystemInit(void)
 181:system_stm32l4xx.c **** {
  29              		.loc 1 181 1 view -0
  30              		.cfi_startproc
  31              		@ args = 0, pretend = 0, frame = 0
  32              		@ frame_needed = 0, uses_anonymous_args = 0
  33              		@ link register save eliminated.
 182:system_stm32l4xx.c ****   /* FPU settings ------------------------------------------------------------*/
 183:system_stm32l4xx.c ****   #if (__FPU_PRESENT == 1) && (__FPU_USED == 1)
 184:system_stm32l4xx.c ****     SCB->CPACR |= ((3UL << 10*2)|(3UL << 11*2));  /* set CP10 and CP11 Full Access */
  34              		.loc 1 184 5 view .LVU1
  35              		.loc 1 184 16 is_stmt 0 view .LVU2
  36 0000 0F49     		ldr	r1, .L2
  37 0002 D1F88830 		ldr	r3, [r1, #136]
  38 0006 43F47003 		orr	r3, r3, #15728640
  39 000a C1F88830 		str	r3, [r1, #136]
 185:system_stm32l4xx.c ****   #endif
 186:system_stm32l4xx.c **** 
 187:system_stm32l4xx.c ****   /* Reset the RCC clock configuration to the default reset state ------------*/
 188:system_stm32l4xx.c ****   /* Set MSION bit */
 189:system_stm32l4xx.c ****   RCC->CR |= RCC_CR_MSION;
  40              		.loc 1 189 3 is_stmt 1 view .LVU3
ARM GAS  C:\Users\mikal\AppData\Local\Temp\ccEi5RM2.s 			page 5


  41              		.loc 1 189 11 is_stmt 0 view .LVU4
  42 000e 0D4B     		ldr	r3, .L2+4
  43 0010 1A68     		ldr	r2, [r3]
  44 0012 42F00102 		orr	r2, r2, #1
  45 0016 1A60     		str	r2, [r3]
 190:system_stm32l4xx.c **** 
 191:system_stm32l4xx.c ****   /* Reset CFGR register */
 192:system_stm32l4xx.c ****   RCC->CFGR = 0x00000000U;
  46              		.loc 1 192 3 is_stmt 1 view .LVU5
  47              		.loc 1 192 13 is_stmt 0 view .LVU6
  48 0018 0020     		movs	r0, #0
  49 001a 9860     		str	r0, [r3, #8]
 193:system_stm32l4xx.c **** 
 194:system_stm32l4xx.c ****   /* Reset HSEON, CSSON , HSION, and PLLON bits */
 195:system_stm32l4xx.c ****   RCC->CR &= 0xEAF6FFFFU;
  50              		.loc 1 195 3 is_stmt 1 view .LVU7
  51              		.loc 1 195 11 is_stmt 0 view .LVU8
  52 001c 1A68     		ldr	r2, [r3]
  53 001e 22F0A852 		bic	r2, r2, #352321536
  54 0022 22F41022 		bic	r2, r2, #589824
  55 0026 1A60     		str	r2, [r3]
 196:system_stm32l4xx.c **** 
 197:system_stm32l4xx.c ****   /* Reset PLLCFGR register */
 198:system_stm32l4xx.c ****   RCC->PLLCFGR = 0x00001000U;
  56              		.loc 1 198 3 is_stmt 1 view .LVU9
  57              		.loc 1 198 16 is_stmt 0 view .LVU10
  58 0028 4FF48052 		mov	r2, #4096
  59 002c DA60     		str	r2, [r3, #12]
 199:system_stm32l4xx.c **** 
 200:system_stm32l4xx.c ****   /* Reset HSEBYP bit */
 201:system_stm32l4xx.c ****   RCC->CR &= 0xFFFBFFFFU;
  60              		.loc 1 201 3 is_stmt 1 view .LVU11
  61              		.loc 1 201 11 is_stmt 0 view .LVU12
  62 002e 1A68     		ldr	r2, [r3]
  63 0030 22F48022 		bic	r2, r2, #262144
  64 0034 1A60     		str	r2, [r3]
 202:system_stm32l4xx.c **** 
 203:system_stm32l4xx.c ****   /* Disable all interrupts */
 204:system_stm32l4xx.c ****   RCC->CIER = 0x00000000U;
  65              		.loc 1 204 3 is_stmt 1 view .LVU13
  66              		.loc 1 204 13 is_stmt 0 view .LVU14
  67 0036 9861     		str	r0, [r3, #24]
 205:system_stm32l4xx.c **** 
 206:system_stm32l4xx.c ****   /* Configure the Vector Table location add offset address ------------------*/
 207:system_stm32l4xx.c **** #ifdef VECT_TAB_SRAM
 208:system_stm32l4xx.c ****   SCB->VTOR = SRAM_BASE | VECT_TAB_OFFSET; /* Vector Table Relocation in Internal SRAM */
 209:system_stm32l4xx.c **** #else
 210:system_stm32l4xx.c ****   SCB->VTOR = FLASH_BASE | VECT_TAB_OFFSET; /* Vector Table Relocation in Internal FLASH */
  68              		.loc 1 210 3 is_stmt 1 view .LVU15
  69              		.loc 1 210 13 is_stmt 0 view .LVU16
  70 0038 4FF00063 		mov	r3, #134217728
  71 003c 8B60     		str	r3, [r1, #8]
 211:system_stm32l4xx.c **** #endif
 212:system_stm32l4xx.c **** }
  72              		.loc 1 212 1 view .LVU17
  73 003e 7047     		bx	lr
  74              	.L3:
ARM GAS  C:\Users\mikal\AppData\Local\Temp\ccEi5RM2.s 			page 6


  75              		.align	2
  76              	.L2:
  77 0040 00ED00E0 		.word	-536810240
  78 0044 00100240 		.word	1073876992
  79              		.cfi_endproc
  80              	.LFE132:
  82              		.section	.text.SystemCoreClockUpdate,"ax",%progbits
  83              		.align	1
  84              		.global	SystemCoreClockUpdate
  85              		.syntax unified
  86              		.thumb
  87              		.thumb_func
  88              		.fpu fpv4-sp-d16
  90              	SystemCoreClockUpdate:
  91              	.LFB133:
 213:system_stm32l4xx.c **** 
 214:system_stm32l4xx.c **** /**
 215:system_stm32l4xx.c ****   * @brief  Update SystemCoreClock variable according to Clock Register Values.
 216:system_stm32l4xx.c ****   *         The SystemCoreClock variable contains the core clock (HCLK), it can
 217:system_stm32l4xx.c ****   *         be used by the user application to setup the SysTick timer or configure
 218:system_stm32l4xx.c ****   *         other parameters.
 219:system_stm32l4xx.c ****   *
 220:system_stm32l4xx.c ****   * @note   Each time the core clock (HCLK) changes, this function must be called
 221:system_stm32l4xx.c ****   *         to update SystemCoreClock variable value. Otherwise, any configuration
 222:system_stm32l4xx.c ****   *         based on this variable will be incorrect.
 223:system_stm32l4xx.c ****   *
 224:system_stm32l4xx.c ****   * @note   - The system frequency computed by this function is not the real
 225:system_stm32l4xx.c ****   *           frequency in the chip. It is calculated based on the predefined
 226:system_stm32l4xx.c ****   *           constant and the selected clock source:
 227:system_stm32l4xx.c ****   *
 228:system_stm32l4xx.c ****   *           - If SYSCLK source is MSI, SystemCoreClock will contain the MSI_VALUE(*)
 229:system_stm32l4xx.c ****   *
 230:system_stm32l4xx.c ****   *           - If SYSCLK source is HSI, SystemCoreClock will contain the HSI_VALUE(**)
 231:system_stm32l4xx.c ****   *
 232:system_stm32l4xx.c ****   *           - If SYSCLK source is HSE, SystemCoreClock will contain the HSE_VALUE(***)
 233:system_stm32l4xx.c ****   *
 234:system_stm32l4xx.c ****   *           - If SYSCLK source is PLL, SystemCoreClock will contain the HSE_VALUE(***)
 235:system_stm32l4xx.c ****   *             or HSI_VALUE(*) or MSI_VALUE(*) multiplied/divided by the PLL factors.
 236:system_stm32l4xx.c ****   *
 237:system_stm32l4xx.c ****   *         (*) MSI_VALUE is a constant defined in stm32l4xx_hal.h file (default value
 238:system_stm32l4xx.c ****   *             4 MHz) but the real value may vary depending on the variations
 239:system_stm32l4xx.c ****   *             in voltage and temperature.
 240:system_stm32l4xx.c ****   *
 241:system_stm32l4xx.c ****   *         (**) HSI_VALUE is a constant defined in stm32l4xx_hal.h file (default value
 242:system_stm32l4xx.c ****   *              16 MHz) but the real value may vary depending on the variations
 243:system_stm32l4xx.c ****   *              in voltage and temperature.
 244:system_stm32l4xx.c ****   *
 245:system_stm32l4xx.c ****   *         (***) HSE_VALUE is a constant defined in stm32l4xx_hal.h file (default value
 246:system_stm32l4xx.c ****   *              8 MHz), user has to ensure that HSE_VALUE is same as the real
 247:system_stm32l4xx.c ****   *              frequency of the crystal used. Otherwise, this function may
 248:system_stm32l4xx.c ****   *              have wrong result.
 249:system_stm32l4xx.c ****   *
 250:system_stm32l4xx.c ****   *         - The result of this function could be not correct when using fractional
 251:system_stm32l4xx.c ****   *           value for HSE crystal.
 252:system_stm32l4xx.c ****   *
 253:system_stm32l4xx.c ****   * @param  None
 254:system_stm32l4xx.c ****   * @retval None
ARM GAS  C:\Users\mikal\AppData\Local\Temp\ccEi5RM2.s 			page 7


 255:system_stm32l4xx.c ****   */
 256:system_stm32l4xx.c **** void SystemCoreClockUpdate(void)
 257:system_stm32l4xx.c **** {
  92              		.loc 1 257 1 is_stmt 1 view -0
  93              		.cfi_startproc
  94              		@ args = 0, pretend = 0, frame = 0
  95              		@ frame_needed = 0, uses_anonymous_args = 0
  96              		@ link register save eliminated.
 258:system_stm32l4xx.c ****   uint32_t tmp = 0U, msirange = 0U, pllvco = 0U, pllr = 2U, pllsource = 0U, pllm = 2U;
  97              		.loc 1 258 3 view .LVU19
  98              	.LVL0:
 259:system_stm32l4xx.c **** 
 260:system_stm32l4xx.c ****   /* Get MSI Range frequency--------------------------------------------------*/
 261:system_stm32l4xx.c ****   if((RCC->CR & RCC_CR_MSIRGSEL) == RESET)
  99              		.loc 1 261 3 view .LVU20
 100              		.loc 1 261 10 is_stmt 0 view .LVU21
 101 0000 2F4B     		ldr	r3, .L19
 102 0002 1B68     		ldr	r3, [r3]
 103              		.loc 1 261 5 view .LVU22
 104 0004 13F0080F 		tst	r3, #8
 105 0008 16D1     		bne	.L5
 262:system_stm32l4xx.c ****   { /* MSISRANGE from RCC_CSR applies */
 263:system_stm32l4xx.c ****     msirange = (RCC->CSR & RCC_CSR_MSISRANGE) >> 8U;
 106              		.loc 1 263 5 is_stmt 1 view .LVU23
 107              		.loc 1 263 20 is_stmt 0 view .LVU24
 108 000a 2D4B     		ldr	r3, .L19
 109 000c D3F89430 		ldr	r3, [r3, #148]
 110              		.loc 1 263 14 view .LVU25
 111 0010 C3F30323 		ubfx	r3, r3, #8, #4
 112              	.LVL1:
 113              	.L6:
 264:system_stm32l4xx.c ****   }
 265:system_stm32l4xx.c ****   else
 266:system_stm32l4xx.c ****   { /* MSIRANGE from RCC_CR applies */
 267:system_stm32l4xx.c ****     msirange = (RCC->CR & RCC_CR_MSIRANGE) >> 4U;
 268:system_stm32l4xx.c ****   }
 269:system_stm32l4xx.c ****   /*MSI frequency range in HZ*/
 270:system_stm32l4xx.c ****   msirange = MSIRangeTable[msirange];
 114              		.loc 1 270 3 is_stmt 1 view .LVU26
 115              		.loc 1 270 12 is_stmt 0 view .LVU27
 116 0014 2B4A     		ldr	r2, .L19+4
 117 0016 52F82320 		ldr	r2, [r2, r3, lsl #2]
 118              	.LVL2:
 271:system_stm32l4xx.c **** 
 272:system_stm32l4xx.c ****   /* Get SYSCLK source -------------------------------------------------------*/
 273:system_stm32l4xx.c ****   switch (RCC->CFGR & RCC_CFGR_SWS)
 119              		.loc 1 273 3 is_stmt 1 view .LVU28
 120              		.loc 1 273 14 is_stmt 0 view .LVU29
 121 001a 294B     		ldr	r3, .L19
 122 001c 9B68     		ldr	r3, [r3, #8]
 123              		.loc 1 273 21 view .LVU30
 124 001e 03F00C03 		and	r3, r3, #12
 125              		.loc 1 273 3 view .LVU31
 126 0022 0C2B     		cmp	r3, #12
 127 0024 48D8     		bhi	.L7
 128 0026 DFE803F0 		tbb	[pc, r3]
 129              	.L9:
ARM GAS  C:\Users\mikal\AppData\Local\Temp\ccEi5RM2.s 			page 8


 130 002a 0C       		.byte	(.L12-.L9)/2
 131 002b 47       		.byte	(.L7-.L9)/2
 132 002c 47       		.byte	(.L7-.L9)/2
 133 002d 47       		.byte	(.L7-.L9)/2
 134 002e 0F       		.byte	(.L11-.L9)/2
 135 002f 47       		.byte	(.L7-.L9)/2
 136 0030 47       		.byte	(.L7-.L9)/2
 137 0031 47       		.byte	(.L7-.L9)/2
 138 0032 13       		.byte	(.L10-.L9)/2
 139 0033 47       		.byte	(.L7-.L9)/2
 140 0034 47       		.byte	(.L7-.L9)/2
 141 0035 47       		.byte	(.L7-.L9)/2
 142 0036 17       		.byte	(.L8-.L9)/2
 143              	.LVL3:
 144 0037 00       		.p2align 1
 145              	.L5:
 267:system_stm32l4xx.c ****   }
 146              		.loc 1 267 5 is_stmt 1 view .LVU32
 267:system_stm32l4xx.c ****   }
 147              		.loc 1 267 20 is_stmt 0 view .LVU33
 148 0038 214B     		ldr	r3, .L19
 149 003a 1B68     		ldr	r3, [r3]
 267:system_stm32l4xx.c ****   }
 150              		.loc 1 267 14 view .LVU34
 151 003c C3F30313 		ubfx	r3, r3, #4, #4
 152              	.LVL4:
 267:system_stm32l4xx.c ****   }
 153              		.loc 1 267 14 view .LVU35
 154 0040 E8E7     		b	.L6
 155              	.LVL5:
 156              	.L12:
 274:system_stm32l4xx.c ****   {
 275:system_stm32l4xx.c ****     case 0x00:  /* MSI used as system clock source */
 276:system_stm32l4xx.c ****       SystemCoreClock = msirange;
 157              		.loc 1 276 7 is_stmt 1 view .LVU36
 158              		.loc 1 276 23 is_stmt 0 view .LVU37
 159 0042 214B     		ldr	r3, .L19+8
 160 0044 1A60     		str	r2, [r3]
 277:system_stm32l4xx.c ****       break;
 161              		.loc 1 277 7 is_stmt 1 view .LVU38
 162 0046 28E0     		b	.L13
 163              	.L11:
 278:system_stm32l4xx.c **** 
 279:system_stm32l4xx.c ****     case 0x04:  /* HSI used as system clock source */
 280:system_stm32l4xx.c ****       SystemCoreClock = HSI_VALUE;
 164              		.loc 1 280 7 view .LVU39
 165              		.loc 1 280 23 is_stmt 0 view .LVU40
 166 0048 1F4B     		ldr	r3, .L19+8
 167 004a 204A     		ldr	r2, .L19+12
 168              	.LVL6:
 169              		.loc 1 280 23 view .LVU41
 170 004c 1A60     		str	r2, [r3]
 281:system_stm32l4xx.c ****       break;
 171              		.loc 1 281 7 is_stmt 1 view .LVU42
 172 004e 24E0     		b	.L13
 173              	.LVL7:
 174              	.L10:
ARM GAS  C:\Users\mikal\AppData\Local\Temp\ccEi5RM2.s 			page 9


 282:system_stm32l4xx.c **** 
 283:system_stm32l4xx.c ****     case 0x08:  /* HSE used as system clock source */
 284:system_stm32l4xx.c ****       SystemCoreClock = HSE_VALUE;
 175              		.loc 1 284 7 view .LVU43
 176              		.loc 1 284 23 is_stmt 0 view .LVU44
 177 0050 1D4B     		ldr	r3, .L19+8
 178 0052 1F4A     		ldr	r2, .L19+16
 179              	.LVL8:
 180              		.loc 1 284 23 view .LVU45
 181 0054 1A60     		str	r2, [r3]
 285:system_stm32l4xx.c ****       break;
 182              		.loc 1 285 7 is_stmt 1 view .LVU46
 183 0056 20E0     		b	.L13
 184              	.LVL9:
 185              	.L8:
 286:system_stm32l4xx.c **** 
 287:system_stm32l4xx.c ****     case 0x0C:  /* PLL used as system clock  source */
 288:system_stm32l4xx.c ****       /* PLL_VCO = (HSE_VALUE or HSI_VALUE or MSI_VALUE/ PLLM) * PLLN
 289:system_stm32l4xx.c ****          SYSCLK = PLL_VCO / PLLR
 290:system_stm32l4xx.c ****          */
 291:system_stm32l4xx.c ****       pllsource = (RCC->PLLCFGR & RCC_PLLCFGR_PLLSRC);
 186              		.loc 1 291 7 view .LVU47
 187              		.loc 1 291 23 is_stmt 0 view .LVU48
 188 0058 194B     		ldr	r3, .L19
 189 005a D968     		ldr	r1, [r3, #12]
 190              		.loc 1 291 17 view .LVU49
 191 005c 01F00301 		and	r1, r1, #3
 192              	.LVL10:
 292:system_stm32l4xx.c ****       pllm = ((RCC->PLLCFGR & RCC_PLLCFGR_PLLM) >> 4U) + 1U ;
 193              		.loc 1 292 7 is_stmt 1 view .LVU50
 194              		.loc 1 292 19 is_stmt 0 view .LVU51
 195 0060 DB68     		ldr	r3, [r3, #12]
 196              		.loc 1 292 49 view .LVU52
 197 0062 C3F30213 		ubfx	r3, r3, #4, #3
 198              		.loc 1 292 12 view .LVU53
 199 0066 0133     		adds	r3, r3, #1
 200              	.LVL11:
 293:system_stm32l4xx.c **** 
 294:system_stm32l4xx.c ****       switch (pllsource)
 201              		.loc 1 294 7 is_stmt 1 view .LVU54
 202 0068 0229     		cmp	r1, #2
 203 006a 04D0     		beq	.L14
 204 006c 0329     		cmp	r1, #3
 205 006e 1FD0     		beq	.L15
 295:system_stm32l4xx.c ****       {
 296:system_stm32l4xx.c ****         case 0x02:  /* HSI used as PLL clock source */
 297:system_stm32l4xx.c ****           pllvco = (HSI_VALUE / pllm);
 298:system_stm32l4xx.c ****           break;
 299:system_stm32l4xx.c **** 
 300:system_stm32l4xx.c ****         case 0x03:  /* HSE used as PLL clock source */
 301:system_stm32l4xx.c ****           pllvco = (HSE_VALUE / pllm);
 302:system_stm32l4xx.c ****           break;
 303:system_stm32l4xx.c **** 
 304:system_stm32l4xx.c ****         default:    /* MSI used as PLL clock source */
 305:system_stm32l4xx.c ****           pllvco = (msirange / pllm);
 206              		.loc 1 305 11 view .LVU55
 207              		.loc 1 305 18 is_stmt 0 view .LVU56
ARM GAS  C:\Users\mikal\AppData\Local\Temp\ccEi5RM2.s 			page 10


 208 0070 B2FBF3F2 		udiv	r2, r2, r3
 209              	.LVL12:
 306:system_stm32l4xx.c ****           break;
 210              		.loc 1 306 11 is_stmt 1 view .LVU57
 211 0074 02E0     		b	.L17
 212              	.LVL13:
 213              	.L14:
 297:system_stm32l4xx.c ****           break;
 214              		.loc 1 297 11 view .LVU58
 297:system_stm32l4xx.c ****           break;
 215              		.loc 1 297 18 is_stmt 0 view .LVU59
 216 0076 154A     		ldr	r2, .L19+12
 217              	.LVL14:
 297:system_stm32l4xx.c ****           break;
 218              		.loc 1 297 18 view .LVU60
 219 0078 B2FBF3F2 		udiv	r2, r2, r3
 220              	.LVL15:
 298:system_stm32l4xx.c **** 
 221              		.loc 1 298 11 is_stmt 1 view .LVU61
 222              	.L17:
 307:system_stm32l4xx.c ****       }
 308:system_stm32l4xx.c ****       pllvco = pllvco * ((RCC->PLLCFGR & RCC_PLLCFGR_PLLN) >> 8U);
 223              		.loc 1 308 7 view .LVU62
 224              		.loc 1 308 30 is_stmt 0 view .LVU63
 225 007c 1049     		ldr	r1, .L19
 226              	.LVL16:
 227              		.loc 1 308 30 view .LVU64
 228 007e CB68     		ldr	r3, [r1, #12]
 229              	.LVL17:
 230              		.loc 1 308 60 view .LVU65
 231 0080 C3F30623 		ubfx	r3, r3, #8, #7
 232              		.loc 1 308 14 view .LVU66
 233 0084 02FB03F3 		mul	r3, r2, r3
 234              	.LVL18:
 309:system_stm32l4xx.c ****       pllr = (((RCC->PLLCFGR & RCC_PLLCFGR_PLLR) >> 25U) + 1U) * 2U;
 235              		.loc 1 309 7 is_stmt 1 view .LVU67
 236              		.loc 1 309 20 is_stmt 0 view .LVU68
 237 0088 CA68     		ldr	r2, [r1, #12]
 238              		.loc 1 309 50 view .LVU69
 239 008a C2F34162 		ubfx	r2, r2, #25, #2
 240              		.loc 1 309 58 view .LVU70
 241 008e 0132     		adds	r2, r2, #1
 242              		.loc 1 309 12 view .LVU71
 243 0090 5200     		lsls	r2, r2, #1
 244              	.LVL19:
 310:system_stm32l4xx.c ****       SystemCoreClock = pllvco/pllr;
 245              		.loc 1 310 7 is_stmt 1 view .LVU72
 246              		.loc 1 310 31 is_stmt 0 view .LVU73
 247 0092 B3FBF2F3 		udiv	r3, r3, r2
 248              	.LVL20:
 249              		.loc 1 310 23 view .LVU74
 250 0096 0C4A     		ldr	r2, .L19+8
 251              	.LVL21:
 252              		.loc 1 310 23 view .LVU75
 253 0098 1360     		str	r3, [r2]
 311:system_stm32l4xx.c ****       break;
 254              		.loc 1 311 7 is_stmt 1 view .LVU76
ARM GAS  C:\Users\mikal\AppData\Local\Temp\ccEi5RM2.s 			page 11


 255              	.L13:
 312:system_stm32l4xx.c **** 
 313:system_stm32l4xx.c ****     default:
 314:system_stm32l4xx.c ****       SystemCoreClock = msirange;
 315:system_stm32l4xx.c ****       break;
 316:system_stm32l4xx.c ****   }
 317:system_stm32l4xx.c ****   /* Compute HCLK clock frequency --------------------------------------------*/
 318:system_stm32l4xx.c ****   /* Get HCLK prescaler */
 319:system_stm32l4xx.c ****   tmp = AHBPrescTable[((RCC->CFGR & RCC_CFGR_HPRE) >> 4U)];
 256              		.loc 1 319 3 view .LVU77
 257              		.loc 1 319 28 is_stmt 0 view .LVU78
 258 009a 094B     		ldr	r3, .L19
 259 009c 9B68     		ldr	r3, [r3, #8]
 260              		.loc 1 319 52 view .LVU79
 261 009e C3F30313 		ubfx	r3, r3, #4, #4
 262              		.loc 1 319 22 view .LVU80
 263 00a2 0C4A     		ldr	r2, .L19+20
 264 00a4 D15C     		ldrb	r1, [r2, r3]	@ zero_extendqisi2
 265              	.LVL22:
 320:system_stm32l4xx.c ****   /* HCLK clock frequency */
 321:system_stm32l4xx.c ****   SystemCoreClock >>= tmp;
 266              		.loc 1 321 3 is_stmt 1 view .LVU81
 267              		.loc 1 321 19 is_stmt 0 view .LVU82
 268 00a6 084A     		ldr	r2, .L19+8
 269 00a8 1368     		ldr	r3, [r2]
 270 00aa CB40     		lsrs	r3, r3, r1
 271 00ac 1360     		str	r3, [r2]
 322:system_stm32l4xx.c **** }
 272              		.loc 1 322 1 view .LVU83
 273 00ae 7047     		bx	lr
 274              	.LVL23:
 275              	.L15:
 301:system_stm32l4xx.c ****           break;
 276              		.loc 1 301 11 is_stmt 1 view .LVU84
 301:system_stm32l4xx.c ****           break;
 277              		.loc 1 301 18 is_stmt 0 view .LVU85
 278 00b0 074A     		ldr	r2, .L19+16
 279              	.LVL24:
 301:system_stm32l4xx.c ****           break;
 280              		.loc 1 301 18 view .LVU86
 281 00b2 B2FBF3F2 		udiv	r2, r2, r3
 282              	.LVL25:
 302:system_stm32l4xx.c **** 
 283              		.loc 1 302 11 is_stmt 1 view .LVU87
 284 00b6 E1E7     		b	.L17
 285              	.LVL26:
 286              	.L7:
 314:system_stm32l4xx.c ****       break;
 287              		.loc 1 314 7 view .LVU88
 314:system_stm32l4xx.c ****       break;
 288              		.loc 1 314 23 is_stmt 0 view .LVU89
 289 00b8 034B     		ldr	r3, .L19+8
 290 00ba 1A60     		str	r2, [r3]
 315:system_stm32l4xx.c ****   }
 291              		.loc 1 315 7 is_stmt 1 view .LVU90
 292 00bc EDE7     		b	.L13
 293              	.L20:
ARM GAS  C:\Users\mikal\AppData\Local\Temp\ccEi5RM2.s 			page 12


 294 00be 00BF     		.align	2
 295              	.L19:
 296 00c0 00100240 		.word	1073876992
 297 00c4 00000000 		.word	.LANCHOR0
 298 00c8 00000000 		.word	.LANCHOR1
 299 00cc 0024F400 		.word	16000000
 300 00d0 00127A00 		.word	8000000
 301 00d4 00000000 		.word	.LANCHOR2
 302              		.cfi_endproc
 303              	.LFE133:
 305              		.global	MSIRangeTable
 306              		.global	APBPrescTable
 307              		.global	AHBPrescTable
 308              		.global	SystemCoreClock
 309              		.section	.data.SystemCoreClock,"aw"
 310              		.align	2
 311              		.set	.LANCHOR1,. + 0
 314              	SystemCoreClock:
 315 0000 00093D00 		.word	4000000
 316              		.section	.rodata.AHBPrescTable,"a"
 317              		.align	2
 318              		.set	.LANCHOR2,. + 0
 321              	AHBPrescTable:
 322 0000 00000000 		.ascii	"\000\000\000\000\000\000\000\000\001\002\003\004\006"
 322      00000000 
 322      01020304 
 322      06
 323 000d 070809   		.ascii	"\007\010\011"
 324              		.section	.rodata.APBPrescTable,"a"
 325              		.align	2
 328              	APBPrescTable:
 329 0000 00000000 		.ascii	"\000\000\000\000\001\002\003\004"
 329      01020304 
 330              		.section	.rodata.MSIRangeTable,"a"
 331              		.align	2
 332              		.set	.LANCHOR0,. + 0
 335              	MSIRangeTable:
 336 0000 A0860100 		.word	100000
 337 0004 400D0300 		.word	200000
 338 0008 801A0600 		.word	400000
 339 000c 00350C00 		.word	800000
 340 0010 40420F00 		.word	1000000
 341 0014 80841E00 		.word	2000000
 342 0018 00093D00 		.word	4000000
 343 001c 00127A00 		.word	8000000
 344 0020 0024F400 		.word	16000000
 345 0024 00366E01 		.word	24000000
 346 0028 0048E801 		.word	32000000
 347 002c 006CDC02 		.word	48000000
 348              		.text
 349              	.Letext0:
 350              		.file 2 "c:\\gnu arm embedded toolchain\\10 2021.07\\arm-none-eabi\\include\\machine\\_default_typ
 351              		.file 3 "c:\\gnu arm embedded toolchain\\10 2021.07\\arm-none-eabi\\include\\sys\\_stdint.h"
 352              		.file 4 "drivers/CMSIS/Include/core_cm4.h"
 353              		.file 5 "drivers/CMSIS/Device/ST/STM32L4xx/Include/system_stm32l4xx.h"
 354              		.file 6 "drivers/CMSIS/Device/ST/STM32L4xx/Include/stm32l475xx.h"
 355              		.file 7 "drivers/CMSIS/Device/ST/STM32L4xx/Include/stm32l4xx.h"
ARM GAS  C:\Users\mikal\AppData\Local\Temp\ccEi5RM2.s 			page 13


ARM GAS  C:\Users\mikal\AppData\Local\Temp\ccEi5RM2.s 			page 14


DEFINED SYMBOLS
                            *ABS*:00000000 system_stm32l4xx.c
C:\Users\mikal\AppData\Local\Temp\ccEi5RM2.s:18     .text.SystemInit:00000000 $t
C:\Users\mikal\AppData\Local\Temp\ccEi5RM2.s:26     .text.SystemInit:00000000 SystemInit
C:\Users\mikal\AppData\Local\Temp\ccEi5RM2.s:77     .text.SystemInit:00000040 $d
C:\Users\mikal\AppData\Local\Temp\ccEi5RM2.s:83     .text.SystemCoreClockUpdate:00000000 $t
C:\Users\mikal\AppData\Local\Temp\ccEi5RM2.s:90     .text.SystemCoreClockUpdate:00000000 SystemCoreClockUpdate
C:\Users\mikal\AppData\Local\Temp\ccEi5RM2.s:130    .text.SystemCoreClockUpdate:0000002a $d
C:\Users\mikal\AppData\Local\Temp\ccEi5RM2.s:296    .text.SystemCoreClockUpdate:000000c0 $d
C:\Users\mikal\AppData\Local\Temp\ccEi5RM2.s:335    .rodata.MSIRangeTable:00000000 MSIRangeTable
C:\Users\mikal\AppData\Local\Temp\ccEi5RM2.s:328    .rodata.APBPrescTable:00000000 APBPrescTable
C:\Users\mikal\AppData\Local\Temp\ccEi5RM2.s:321    .rodata.AHBPrescTable:00000000 AHBPrescTable
C:\Users\mikal\AppData\Local\Temp\ccEi5RM2.s:314    .data.SystemCoreClock:00000000 SystemCoreClock
C:\Users\mikal\AppData\Local\Temp\ccEi5RM2.s:310    .data.SystemCoreClock:00000000 $d
C:\Users\mikal\AppData\Local\Temp\ccEi5RM2.s:317    .rodata.AHBPrescTable:00000000 $d
C:\Users\mikal\AppData\Local\Temp\ccEi5RM2.s:325    .rodata.APBPrescTable:00000000 $d
C:\Users\mikal\AppData\Local\Temp\ccEi5RM2.s:331    .rodata.MSIRangeTable:00000000 $d
C:\Users\mikal\AppData\Local\Temp\ccEi5RM2.s:144    .text.SystemCoreClockUpdate:00000037 $d
C:\Users\mikal\AppData\Local\Temp\ccEi5RM2.s:144    .text.SystemCoreClockUpdate:00000038 $t

NO UNDEFINED SYMBOLS
