ARM GAS  C:\Users\mikal\AppData\Local\Temp\ccm1zh4G.s 			page 1


   1              		.cpu cortex-m4
   2              		.eabi_attribute 27, 1
   3              		.eabi_attribute 28, 1
   4              		.eabi_attribute 20, 1
   5              		.eabi_attribute 21, 1
   6              		.eabi_attribute 23, 3
   7              		.eabi_attribute 24, 1
   8              		.eabi_attribute 25, 1
   9              		.eabi_attribute 26, 1
  10              		.eabi_attribute 30, 1
  11              		.eabi_attribute 34, 1
  12              		.eabi_attribute 18, 4
  13              		.file	"uart_api.c"
  14              		.text
  15              	.Ltext0:
  16              		.cfi_sections	.debug_frame
  17              		.section	.text.__io_putchar,"ax",%progbits
  18              		.align	1
  19              		.global	__io_putchar
  20              		.arch armv7e-m
  21              		.syntax unified
  22              		.thumb
  23              		.thumb_func
  24              		.fpu fpv4-sp-d16
  26              	__io_putchar:
  27              	.LVL0:
  28              	.LFB135:
  29              		.file 1 "uart_api.c"
   1:uart_api.c    **** #include <stdlib.h>
   2:uart_api.c    **** #include <string.h>
   3:uart_api.c    **** #include <stdbool.h>
   4:uart_api.c    **** 
   5:uart_api.c    **** #include "stm32l4xx_hal.h"
   6:uart_api.c    **** #include "user_functions.h"
   7:uart_api.c    **** #include "uart_api.h"
   8:uart_api.c    **** #include "error.h"
   9:uart_api.c    **** 
  10:uart_api.c    **** #define INCOMING_BUFF_LENGTH    64
  11:uart_api.c    **** 
  12:uart_api.c    **** UART_HandleTypeDef huart1;
  13:uart_api.c    **** 
  14:uart_api.c    **** /**
  15:uart_api.c    ****  * @brief Custom implementation of WEAK __io_putchar() function from syscallc.c
  16:uart_api.c    ****  */
  17:uart_api.c    **** int __io_putchar(int ch)
  18:uart_api.c    **** {
  30              		.loc 1 18 1 view -0
  31              		.cfi_startproc
  32              		@ args = 0, pretend = 0, frame = 8
  33              		@ frame_needed = 0, uses_anonymous_args = 0
  34              		.loc 1 18 1 is_stmt 0 view .LVU1
  35 0000 00B5     		push	{lr}
  36              	.LCFI0:
  37              		.cfi_def_cfa_offset 4
  38              		.cfi_offset 14, -4
  39 0002 83B0     		sub	sp, sp, #12
  40              	.LCFI1:
ARM GAS  C:\Users\mikal\AppData\Local\Temp\ccm1zh4G.s 			page 2


  41              		.cfi_def_cfa_offset 16
  42 0004 0190     		str	r0, [sp, #4]
  19:uart_api.c    ****     if(HAL_UART_Transmit(&huart1, (uint8_t *)&ch, 1, 100) != HAL_OK)
  43              		.loc 1 19 5 is_stmt 1 view .LVU2
  44              		.loc 1 19 8 is_stmt 0 view .LVU3
  45 0006 6423     		movs	r3, #100
  46 0008 0122     		movs	r2, #1
  47 000a 01A9     		add	r1, sp, #4
  48 000c 0548     		ldr	r0, .L5
  49              	.LVL1:
  50              		.loc 1 19 8 view .LVU4
  51 000e FFF7FEFF 		bl	HAL_UART_Transmit
  52              	.LVL2:
  53              		.loc 1 19 7 view .LVU5
  54 0012 18B9     		cbnz	r0, .L3
  20:uart_api.c    ****     {
  21:uart_api.c    ****         return -1;
  22:uart_api.c    ****     }
  23:uart_api.c    ****     return ch;
  55              		.loc 1 23 5 is_stmt 1 view .LVU6
  56              		.loc 1 23 12 is_stmt 0 view .LVU7
  57 0014 0198     		ldr	r0, [sp, #4]
  58              	.L1:
  24:uart_api.c    **** }
  59              		.loc 1 24 1 view .LVU8
  60 0016 03B0     		add	sp, sp, #12
  61              	.LCFI2:
  62              		.cfi_remember_state
  63              		.cfi_def_cfa_offset 4
  64              		@ sp needed
  65 0018 5DF804FB 		ldr	pc, [sp], #4
  66              	.L3:
  67              	.LCFI3:
  68              		.cfi_restore_state
  21:uart_api.c    ****     }
  69              		.loc 1 21 16 view .LVU9
  70 001c 4FF0FF30 		mov	r0, #-1
  71 0020 F9E7     		b	.L1
  72              	.L6:
  73 0022 00BF     		.align	2
  74              	.L5:
  75 0024 00000000 		.word	.LANCHOR0
  76              		.cfi_endproc
  77              	.LFE135:
  79              		.section	.rodata.__io_getchar.str1.4,"aMS",%progbits,1
  80              		.align	2
  81              	.LC0:
  82 0000 0D0A00   		.ascii	"\015\012\000"
  83              		.section	.text.__io_getchar,"ax",%progbits
  84              		.align	1
  85              		.global	__io_getchar
  86              		.syntax unified
  87              		.thumb
  88              		.thumb_func
  89              		.fpu fpv4-sp-d16
  91              	__io_getchar:
  92              	.LFB136:
ARM GAS  C:\Users\mikal\AppData\Local\Temp\ccm1zh4G.s 			page 3


  25:uart_api.c    **** 
  26:uart_api.c    **** /**
  27:uart_api.c    ****  * @brief Custom implementation of WEAK __io_getchar() function from syscallc.c
  28:uart_api.c    ****  */
  29:uart_api.c    **** int __io_getchar(void)
  30:uart_api.c    **** {
  93              		.loc 1 30 1 is_stmt 1 view -0
  94              		.cfi_startproc
  95              		@ args = 0, pretend = 0, frame = 8
  96              		@ frame_needed = 0, uses_anonymous_args = 0
  97 0000 00B5     		push	{lr}
  98              	.LCFI4:
  99              		.cfi_def_cfa_offset 4
 100              		.cfi_offset 14, -4
 101 0002 83B0     		sub	sp, sp, #12
 102              	.LCFI5:
 103              		.cfi_def_cfa_offset 16
  31:uart_api.c    ****     char data[4];
 104              		.loc 1 31 5 view .LVU11
  32:uart_api.c    ****     uint8_t ch, len = 1;
 105              		.loc 1 32 5 view .LVU12
 106              	.LVL3:
  33:uart_api.c    **** 
  34:uart_api.c    ****     while(HAL_UART_Receive(&huart1, &ch, 1, 0x10) != HAL_OK)
 107              		.loc 1 34 5 view .LVU13
 108              		.loc 1 34 10 is_stmt 0 view .LVU14
 109 0004 00E0     		b	.L8
 110              	.L9:
  35:uart_api.c    ****     {
  36:uart_api.c    ****         __asm__("nop");
 111              		.loc 1 36 9 is_stmt 1 view .LVU15
 112              		.syntax unified
 113              	@ 36 "uart_api.c" 1
 114 0006 00BF     		nop
 115              	@ 0 "" 2
 116              		.thumb
 117              		.syntax unified
 118              	.L8:
  34:uart_api.c    ****     {
 119              		.loc 1 34 10 view .LVU16
  34:uart_api.c    ****     {
 120              		.loc 1 34 11 is_stmt 0 view .LVU17
 121 0008 1023     		movs	r3, #16
 122 000a 0122     		movs	r2, #1
 123 000c 0DF10301 		add	r1, sp, #3
 124 0010 1548     		ldr	r0, .L16
 125 0012 FFF7FEFF 		bl	HAL_UART_Receive
 126              	.LVL4:
  34:uart_api.c    ****     {
 127              		.loc 1 34 10 view .LVU18
 128 0016 0028     		cmp	r0, #0
 129 0018 F5D1     		bne	.L9
  37:uart_api.c    ****     }
  38:uart_api.c    **** 
  39:uart_api.c    ****     memset(data, 0x00, 4);
 130              		.loc 1 39 5 is_stmt 1 view .LVU19
 131 001a 0023     		movs	r3, #0
ARM GAS  C:\Users\mikal\AppData\Local\Temp\ccm1zh4G.s 			page 4


 132 001c 0193     		str	r3, [sp, #4]
  40:uart_api.c    ****     switch(ch)
 133              		.loc 1 40 5 view .LVU20
 134 001e 9DF80330 		ldrb	r3, [sp, #3]	@ zero_extendqisi2
 135 0022 0D2B     		cmp	r3, #13
 136 0024 04D0     		beq	.L10
 137 0026 15D8     		bhi	.L11
 138 0028 082B     		cmp	r3, #8
 139 002a 19D0     		beq	.L12
 140 002c 0A2B     		cmp	r3, #10
 141 002e 13D1     		bne	.L13
 142              	.L10:
  41:uart_api.c    ****     {
  42:uart_api.c    ****         case '\r':
  43:uart_api.c    ****         case '\n':
  44:uart_api.c    ****             len = 2;
 143              		.loc 1 44 13 view .LVU21
 144              	.LVL5:
  45:uart_api.c    ****             sprintf(data, "\r\n");
 145              		.loc 1 45 13 view .LVU22
 146 0030 0E4B     		ldr	r3, .L16+4
 147 0032 1B68     		ldr	r3, [r3]
 148 0034 ADF80430 		strh	r3, [sp, #4]	@ movhi
 149 0038 1B0C     		lsrs	r3, r3, #16
 150 003a 8DF80630 		strb	r3, [sp, #6]
  46:uart_api.c    ****             break;
 151              		.loc 1 46 13 view .LVU23
  44:uart_api.c    ****             sprintf(data, "\r\n");
 152              		.loc 1 44 17 is_stmt 0 view .LVU24
 153 003e 0222     		movs	r2, #2
 154              	.LVL6:
 155              	.L14:
  47:uart_api.c    **** 
  48:uart_api.c    ****         case '\b':
  49:uart_api.c    ****         case 0x7F:
  50:uart_api.c    ****             len = 3;
  51:uart_api.c    ****             sprintf(data, "\b \b");
  52:uart_api.c    ****             break;
  53:uart_api.c    **** 
  54:uart_api.c    ****         default:
  55:uart_api.c    ****             data[0] = ch;
  56:uart_api.c    ****             break;
  57:uart_api.c    ****     }
  58:uart_api.c    **** 
  59:uart_api.c    ****     HAL_UART_Transmit(&huart1, (uint8_t *)&data, len, 100);
 156              		.loc 1 59 5 is_stmt 1 view .LVU25
 157 0040 6423     		movs	r3, #100
 158 0042 01A9     		add	r1, sp, #4
 159 0044 0848     		ldr	r0, .L16
 160 0046 FFF7FEFF 		bl	HAL_UART_Transmit
 161              	.LVL7:
  60:uart_api.c    ****     return ch;
 162              		.loc 1 60 5 view .LVU26
  61:uart_api.c    **** }
 163              		.loc 1 61 1 is_stmt 0 view .LVU27
 164 004a 9DF80300 		ldrb	r0, [sp, #3]	@ zero_extendqisi2
 165 004e 03B0     		add	sp, sp, #12
ARM GAS  C:\Users\mikal\AppData\Local\Temp\ccm1zh4G.s 			page 5


 166              	.LCFI6:
 167              		.cfi_remember_state
 168              		.cfi_def_cfa_offset 4
 169              		@ sp needed
 170 0050 5DF804FB 		ldr	pc, [sp], #4
 171              	.LVL8:
 172              	.L11:
 173              	.LCFI7:
 174              		.cfi_restore_state
  40:uart_api.c    ****     {
 175              		.loc 1 40 5 view .LVU28
 176 0054 7F2B     		cmp	r3, #127
 177 0056 03D0     		beq	.L12
 178              	.L13:
  55:uart_api.c    ****             break;
 179              		.loc 1 55 13 is_stmt 1 view .LVU29
  55:uart_api.c    ****             break;
 180              		.loc 1 55 21 is_stmt 0 view .LVU30
 181 0058 8DF80430 		strb	r3, [sp, #4]
  56:uart_api.c    ****     }
 182              		.loc 1 56 13 is_stmt 1 view .LVU31
  32:uart_api.c    **** 
 183              		.loc 1 32 17 is_stmt 0 view .LVU32
 184 005c 0122     		movs	r2, #1
  56:uart_api.c    ****     }
 185              		.loc 1 56 13 view .LVU33
 186 005e EFE7     		b	.L14
 187              	.L12:
  50:uart_api.c    ****             sprintf(data, "\b \b");
 188              		.loc 1 50 13 is_stmt 1 view .LVU34
 189              	.LVL9:
  51:uart_api.c    ****             break;
 190              		.loc 1 51 13 view .LVU35
 191 0060 034B     		ldr	r3, .L16+8
 192 0062 0193     		str	r3, [sp, #4]
  52:uart_api.c    **** 
 193              		.loc 1 52 13 view .LVU36
  50:uart_api.c    ****             sprintf(data, "\b \b");
 194              		.loc 1 50 17 is_stmt 0 view .LVU37
 195 0064 0322     		movs	r2, #3
  52:uart_api.c    **** 
 196              		.loc 1 52 13 view .LVU38
 197 0066 EBE7     		b	.L14
 198              	.L17:
 199              		.align	2
 200              	.L16:
 201 0068 00000000 		.word	.LANCHOR0
 202 006c 00000000 		.word	.LC0
 203 0070 08200800 		.word	532488
 204              		.cfi_endproc
 205              	.LFE136:
 207              		.section	.text.UartAPI_Init,"ax",%progbits
 208              		.align	1
 209              		.global	UartAPI_Init
 210              		.syntax unified
 211              		.thumb
 212              		.thumb_func
ARM GAS  C:\Users\mikal\AppData\Local\Temp\ccm1zh4G.s 			page 6


 213              		.fpu fpv4-sp-d16
 215              	UartAPI_Init:
 216              	.LFB137:
  62:uart_api.c    **** 
  63:uart_api.c    **** 
  64:uart_api.c    **** void UartAPI_Init(void)
  65:uart_api.c    **** {
 217              		.loc 1 65 1 is_stmt 1 view -0
 218              		.cfi_startproc
 219              		@ args = 0, pretend = 0, frame = 0
 220              		@ frame_needed = 0, uses_anonymous_args = 0
 221 0000 08B5     		push	{r3, lr}
 222              	.LCFI8:
 223              		.cfi_def_cfa_offset 8
 224              		.cfi_offset 3, -8
 225              		.cfi_offset 14, -4
  66:uart_api.c    ****   huart1.Instance = USART1;
 226              		.loc 1 66 3 view .LVU40
 227              		.loc 1 66 19 is_stmt 0 view .LVU41
 228 0002 0B48     		ldr	r0, .L22
 229 0004 0B4B     		ldr	r3, .L22+4
 230 0006 0360     		str	r3, [r0]
  67:uart_api.c    ****   huart1.Init.BaudRate = 115200;
 231              		.loc 1 67 3 is_stmt 1 view .LVU42
 232              		.loc 1 67 24 is_stmt 0 view .LVU43
 233 0008 4FF4E133 		mov	r3, #115200
 234 000c 4360     		str	r3, [r0, #4]
  68:uart_api.c    ****   huart1.Init.WordLength = UART_WORDLENGTH_8B;
 235              		.loc 1 68 3 is_stmt 1 view .LVU44
 236              		.loc 1 68 26 is_stmt 0 view .LVU45
 237 000e 0023     		movs	r3, #0
 238 0010 8360     		str	r3, [r0, #8]
  69:uart_api.c    ****   huart1.Init.StopBits = UART_STOPBITS_1;
 239              		.loc 1 69 3 is_stmt 1 view .LVU46
 240              		.loc 1 69 24 is_stmt 0 view .LVU47
 241 0012 C360     		str	r3, [r0, #12]
  70:uart_api.c    ****   huart1.Init.Parity = UART_PARITY_NONE;
 242              		.loc 1 70 3 is_stmt 1 view .LVU48
 243              		.loc 1 70 22 is_stmt 0 view .LVU49
 244 0014 0361     		str	r3, [r0, #16]
  71:uart_api.c    ****   huart1.Init.Mode = UART_MODE_TX_RX;
 245              		.loc 1 71 3 is_stmt 1 view .LVU50
 246              		.loc 1 71 20 is_stmt 0 view .LVU51
 247 0016 0C22     		movs	r2, #12
 248 0018 4261     		str	r2, [r0, #20]
  72:uart_api.c    ****   huart1.Init.HwFlowCtl = UART_HWCONTROL_NONE;
 249              		.loc 1 72 3 is_stmt 1 view .LVU52
 250              		.loc 1 72 25 is_stmt 0 view .LVU53
 251 001a 8361     		str	r3, [r0, #24]
  73:uart_api.c    ****   huart1.Init.OverSampling = UART_OVERSAMPLING_16;
 252              		.loc 1 73 3 is_stmt 1 view .LVU54
 253              		.loc 1 73 28 is_stmt 0 view .LVU55
 254 001c C361     		str	r3, [r0, #28]
  74:uart_api.c    ****   huart1.Init.OneBitSampling = UART_ONE_BIT_SAMPLE_DISABLE;
 255              		.loc 1 74 3 is_stmt 1 view .LVU56
 256              		.loc 1 74 30 is_stmt 0 view .LVU57
 257 001e 0362     		str	r3, [r0, #32]
ARM GAS  C:\Users\mikal\AppData\Local\Temp\ccm1zh4G.s 			page 7


  75:uart_api.c    ****   huart1.AdvancedInit.AdvFeatureInit = UART_ADVFEATURE_NO_INIT;
 258              		.loc 1 75 3 is_stmt 1 view .LVU58
 259              		.loc 1 75 38 is_stmt 0 view .LVU59
 260 0020 4362     		str	r3, [r0, #36]
  76:uart_api.c    ****   if (HAL_UART_Init(&huart1) != HAL_OK)
 261              		.loc 1 76 3 is_stmt 1 view .LVU60
 262              		.loc 1 76 7 is_stmt 0 view .LVU61
 263 0022 FFF7FEFF 		bl	HAL_UART_Init
 264              	.LVL10:
 265              		.loc 1 76 6 view .LVU62
 266 0026 00B9     		cbnz	r0, .L21
 267              	.L18:
  77:uart_api.c    ****   {
  78:uart_api.c    ****     Error_Handler();
  79:uart_api.c    ****   }
  80:uart_api.c    **** }
 268              		.loc 1 80 1 view .LVU63
 269 0028 08BD     		pop	{r3, pc}
 270              	.L21:
  78:uart_api.c    ****   }
 271              		.loc 1 78 5 is_stmt 1 view .LVU64
 272 002a FFF7FEFF 		bl	Error_Handler
 273              	.LVL11:
 274              		.loc 1 80 1 is_stmt 0 view .LVU65
 275 002e FBE7     		b	.L18
 276              	.L23:
 277              		.align	2
 278              	.L22:
 279 0030 00000000 		.word	.LANCHOR0
 280 0034 00380140 		.word	1073821696
 281              		.cfi_endproc
 282              	.LFE137:
 284              		.section	.RamFunc,"ax",%progbits
 285              		.align	1
 286              		.global	UartAPI_SendChar
 287              		.syntax unified
 288              		.thumb
 289              		.thumb_func
 290              		.fpu fpv4-sp-d16
 292              	UartAPI_SendChar:
 293              	.LVL12:
 294              	.LFB138:
  81:uart_api.c    **** 
  82:uart_api.c    **** 
  83:uart_api.c    **** __RAM_FUNC void UartAPI_SendChar(char c)
  84:uart_api.c    **** {
 295              		.loc 1 84 1 is_stmt 1 view -0
 296              		.cfi_startproc
 297              		@ args = 0, pretend = 0, frame = 0
 298              		@ frame_needed = 0, uses_anonymous_args = 0
 299              		@ link register save eliminated.
  85:uart_api.c    ****     /* Load the Data */
  86:uart_api.c    ****     USART1->TDR = c;
 300              		.loc 1 86 5 view .LVU67
 301              		.loc 1 86 17 is_stmt 0 view .LVU68
 302 0000 044B     		ldr	r3, .L27
 303 0002 1885     		strh	r0, [r3, #40]	@ movhi
ARM GAS  C:\Users\mikal\AppData\Local\Temp\ccm1zh4G.s 			page 8


  87:uart_api.c    ****     /* Wait for TC to SET. This indicates that the data has been transmitted */
  88:uart_api.c    ****     while (!(USART1->ISR & USART_ISR_TC_Msk))
 304              		.loc 1 88 5 is_stmt 1 view .LVU69
 305              		.loc 1 88 11 is_stmt 0 view .LVU70
 306 0004 00E0     		b	.L25
 307              	.L26:
  89:uart_api.c    ****     {
  90:uart_api.c    ****         __asm__("nop");
 308              		.loc 1 90 9 is_stmt 1 view .LVU71
 309              		.syntax unified
 310              	@ 90 "uart_api.c" 1
 311 0006 00BF     		nop
 312              	@ 0 "" 2
 313              		.thumb
 314              		.syntax unified
 315              	.L25:
  88:uart_api.c    ****     {
 316              		.loc 1 88 11 view .LVU72
  88:uart_api.c    ****     {
 317              		.loc 1 88 20 is_stmt 0 view .LVU73
 318 0008 024B     		ldr	r3, .L27
 319 000a DB69     		ldr	r3, [r3, #28]
  88:uart_api.c    ****     {
 320              		.loc 1 88 11 view .LVU74
 321 000c 13F0400F 		tst	r3, #64
 322 0010 F9D0     		beq	.L26
  91:uart_api.c    ****     }
  92:uart_api.c    **** }
 323              		.loc 1 92 1 view .LVU75
 324 0012 7047     		bx	lr
 325              	.L28:
 326              		.align	2
 327              	.L27:
 328 0014 00380140 		.word	1073821696
 329              		.cfi_endproc
 330              	.LFE138:
 332              		.align	1
 333              		.global	UartAPI_GetChar
 334              		.syntax unified
 335              		.thumb
 336              		.thumb_func
 337              		.fpu fpv4-sp-d16
 339              	UartAPI_GetChar:
 340              	.LFB139:
  93:uart_api.c    **** 
  94:uart_api.c    **** 
  95:uart_api.c    **** __RAM_FUNC char UartAPI_GetChar(void)
  96:uart_api.c    **** {
 341              		.loc 1 96 1 is_stmt 1 view -0
 342              		.cfi_startproc
 343              		@ args = 0, pretend = 0, frame = 0
 344              		@ frame_needed = 0, uses_anonymous_args = 0
 345              		@ link register save eliminated.
  97:uart_api.c    ****     char temp;
 346              		.loc 1 97 5 view .LVU77
  98:uart_api.c    ****     /* Wait for RXNE to SET. This indicates that the data has been Received */
  99:uart_api.c    ****     while (!(USART1->ISR & USART_ISR_RXNE_Msk))
ARM GAS  C:\Users\mikal\AppData\Local\Temp\ccm1zh4G.s 			page 9


 347              		.loc 1 99 5 view .LVU78
 348              		.loc 1 99 11 is_stmt 0 view .LVU79
 349 0018 00E0     		b	.L30
 350              	.L31:
 100:uart_api.c    ****     {
 101:uart_api.c    ****         __asm__("nop");
 351              		.loc 1 101 9 is_stmt 1 view .LVU80
 352              		.syntax unified
 353              	@ 101 "uart_api.c" 1
 354 001a 00BF     		nop
 355              	@ 0 "" 2
 356              		.thumb
 357              		.syntax unified
 358              	.L30:
  99:uart_api.c    ****     {
 359              		.loc 1 99 11 view .LVU81
  99:uart_api.c    ****     {
 360              		.loc 1 99 20 is_stmt 0 view .LVU82
 361 001c 044B     		ldr	r3, .L32
 362 001e DB69     		ldr	r3, [r3, #28]
  99:uart_api.c    ****     {
 363              		.loc 1 99 11 view .LVU83
 364 0020 13F0200F 		tst	r3, #32
 365 0024 F9D0     		beq	.L31
 102:uart_api.c    ****     }
 103:uart_api.c    ****     /* Read the data.*/
 104:uart_api.c    ****     temp = (char)USART1->RDR;
 366              		.loc 1 104 5 is_stmt 1 view .LVU84
 367              		.loc 1 104 24 is_stmt 0 view .LVU85
 368 0026 024B     		ldr	r3, .L32
 369 0028 988C     		ldrh	r0, [r3, #36]
 370              	.LVL13:
 105:uart_api.c    ****     return temp;
 371              		.loc 1 105 5 is_stmt 1 view .LVU86
 106:uart_api.c    **** }
 372              		.loc 1 106 1 is_stmt 0 view .LVU87
 373 002a C0B2     		uxtb	r0, r0
 374              		.loc 1 106 1 view .LVU88
 375 002c 7047     		bx	lr
 376              	.L33:
 377 002e 00BF     		.align	2
 378              	.L32:
 379 0030 00380140 		.word	1073821696
 380              		.cfi_endproc
 381              	.LFE139:
 383              		.align	1
 384              		.global	UartAPI_SendString
 385              		.syntax unified
 386              		.thumb
 387              		.thumb_func
 388              		.fpu fpv4-sp-d16
 390              	UartAPI_SendString:
 391              	.LVL14:
 392              	.LFB140:
 107:uart_api.c    **** 
 108:uart_api.c    **** 
 109:uart_api.c    **** __RAM_FUNC void UartAPI_SendString(char *c, int len)
ARM GAS  C:\Users\mikal\AppData\Local\Temp\ccm1zh4G.s 			page 10


 110:uart_api.c    **** {
 393              		.loc 1 110 1 is_stmt 1 view -0
 394              		.cfi_startproc
 395              		@ args = 0, pretend = 0, frame = 0
 396              		@ frame_needed = 0, uses_anonymous_args = 0
 397              		.loc 1 110 1 is_stmt 0 view .LVU90
 398 0034 70B5     		push	{r4, r5, r6, lr}
 399              	.LCFI9:
 400              		.cfi_def_cfa_offset 16
 401              		.cfi_offset 4, -16
 402              		.cfi_offset 5, -12
 403              		.cfi_offset 6, -8
 404              		.cfi_offset 14, -4
 405 0036 0446     		mov	r4, r0
 406 0038 0E46     		mov	r6, r1
 111:uart_api.c    ****     for(int i=0; i<len; i++)
 407              		.loc 1 111 5 is_stmt 1 view .LVU91
 408              	.LBB2:
 409              		.loc 1 111 9 view .LVU92
 410              	.LVL15:
 411              		.loc 1 111 13 is_stmt 0 view .LVU93
 412 003a 0025     		movs	r5, #0
 413              		.loc 1 111 5 view .LVU94
 414 003c 04E0     		b	.L35
 415              	.LVL16:
 416              	.L36:
 112:uart_api.c    ****     {
 113:uart_api.c    ****         UartAPI_SendChar(*c++);
 417              		.loc 1 113 9 is_stmt 1 discriminator 3 view .LVU95
 418              		.loc 1 113 9 is_stmt 0 discriminator 3 view .LVU96
 419 003e 14F8010B 		ldrb	r0, [r4], #1	@ zero_extendqisi2
 420              	.LVL17:
 421              		.loc 1 113 9 discriminator 3 view .LVU97
 422 0042 FFF7FEFF 		bl	UartAPI_SendChar
 423              	.LVL18:
 111:uart_api.c    ****     for(int i=0; i<len; i++)
 424              		.loc 1 111 25 is_stmt 1 discriminator 3 view .LVU98
 111:uart_api.c    ****     for(int i=0; i<len; i++)
 425              		.loc 1 111 26 is_stmt 0 discriminator 3 view .LVU99
 426 0046 0135     		adds	r5, r5, #1
 427              	.LVL19:
 428              	.L35:
 111:uart_api.c    ****     for(int i=0; i<len; i++)
 429              		.loc 1 111 18 is_stmt 1 discriminator 1 view .LVU100
 111:uart_api.c    ****     for(int i=0; i<len; i++)
 430              		.loc 1 111 5 is_stmt 0 discriminator 1 view .LVU101
 431 0048 B542     		cmp	r5, r6
 432 004a F8DB     		blt	.L36
 111:uart_api.c    ****     for(int i=0; i<len; i++)
 433              		.loc 1 111 5 discriminator 1 view .LVU102
 434              	.LBE2:
 114:uart_api.c    ****     }
 115:uart_api.c    **** }
 435              		.loc 1 115 1 view .LVU103
 436 004c 70BD     		pop	{r4, r5, r6, pc}
 437              		.loc 1 115 1 view .LVU104
 438              		.cfi_endproc
ARM GAS  C:\Users\mikal\AppData\Local\Temp\ccm1zh4G.s 			page 11


 439              	.LFE140:
 441 004e 00BF     		.section	.rodata.UartAPI_PrintMenu.str1.4,"aMS",%progbits,1
 442              		.align	2
 443              	.LC1:
 444 0000 1B5B3333 		.ascii	"\033[33m\015\012\015\012Use next commands to contro"
 444      6D0D0A0D 
 444      0A557365 
 444      206E6578 
 444      7420636F 
 445 0024 6C207065 		.ascii	"l peripheral devices:\015\000"
 445      72697068 
 445      6572616C 
 445      20646576 
 445      69636573 
 446 003b 00       		.align	2
 447              	.LC2:
 448 003c 1B5B3333 		.ascii	"\033[33m- %s%s\015\012\000"
 448      6D2D2025 
 448      7325730D 
 448      0A00
 449 004a 0000     		.align	2
 450              	.LC3:
 451 004c 0D00     		.ascii	"\015\000"
 452              		.section	.text.UartAPI_PrintMenu,"ax",%progbits
 453              		.align	1
 454              		.global	UartAPI_PrintMenu
 455              		.syntax unified
 456              		.thumb
 457              		.thumb_func
 458              		.fpu fpv4-sp-d16
 460              	UartAPI_PrintMenu:
 461              	.LFB141:
 116:uart_api.c    **** 
 117:uart_api.c    **** 
 118:uart_api.c    **** void UartAPI_PrintMenu(void)
 119:uart_api.c    **** {
 462              		.loc 1 119 1 is_stmt 1 view -0
 463              		.cfi_startproc
 464              		@ args = 0, pretend = 0, frame = 0
 465              		@ frame_needed = 0, uses_anonymous_args = 0
 466 0000 10B5     		push	{r4, lr}
 467              	.LCFI10:
 468              		.cfi_def_cfa_offset 8
 469              		.cfi_offset 4, -8
 470              		.cfi_offset 14, -4
 120:uart_api.c    ****     Command_t *func;
 471              		.loc 1 120 5 view .LVU106
 121:uart_api.c    ****     printf(TC_YELLOW"\r\n\r\nUse next commands to control peripheral devices:\r\n");
 472              		.loc 1 121 5 view .LVU107
 473 0002 0B48     		ldr	r0, .L42
 474 0004 FFF7FEFF 		bl	puts
 475              	.LVL20:
 122:uart_api.c    ****     for(uint8_t i = 0; i < UserFunctions_GetFuncCount(); i++)
 476              		.loc 1 122 5 view .LVU108
 477              	.LBB3:
 478              		.loc 1 122 9 view .LVU109
 479              		.loc 1 122 17 is_stmt 0 view .LVU110
ARM GAS  C:\Users\mikal\AppData\Local\Temp\ccm1zh4G.s 			page 12


 480 0008 0024     		movs	r4, #0
 481              		.loc 1 122 5 view .LVU111
 482 000a 09E0     		b	.L39
 483              	.LVL21:
 484              	.L40:
 123:uart_api.c    ****     {
 124:uart_api.c    ****         func = UserFunctions_GetFunc(i);
 485              		.loc 1 124 9 is_stmt 1 discriminator 3 view .LVU112
 486              		.loc 1 124 16 is_stmt 0 discriminator 3 view .LVU113
 487 000c 2046     		mov	r0, r4
 488 000e FFF7FEFF 		bl	UserFunctions_GetFunc
 489              	.LVL22:
 125:uart_api.c    ****         printf(TC_YELLOW"- %s%s\r\n", func->command_name, func->command_param);
 490              		.loc 1 125 9 is_stmt 1 discriminator 3 view .LVU114
 491 0012 8268     		ldr	r2, [r0, #8]
 492 0014 4168     		ldr	r1, [r0, #4]
 493 0016 0748     		ldr	r0, .L42+4
 494              	.LVL23:
 495              		.loc 1 125 9 is_stmt 0 discriminator 3 view .LVU115
 496 0018 FFF7FEFF 		bl	printf
 497              	.LVL24:
 122:uart_api.c    ****     for(uint8_t i = 0; i < UserFunctions_GetFuncCount(); i++)
 498              		.loc 1 122 58 is_stmt 1 discriminator 3 view .LVU116
 122:uart_api.c    ****     for(uint8_t i = 0; i < UserFunctions_GetFuncCount(); i++)
 499              		.loc 1 122 59 is_stmt 0 discriminator 3 view .LVU117
 500 001c 0134     		adds	r4, r4, #1
 501              	.LVL25:
 122:uart_api.c    ****     for(uint8_t i = 0; i < UserFunctions_GetFuncCount(); i++)
 502              		.loc 1 122 59 discriminator 3 view .LVU118
 503 001e E4B2     		uxtb	r4, r4
 504              	.LVL26:
 505              	.L39:
 122:uart_api.c    ****     for(uint8_t i = 0; i < UserFunctions_GetFuncCount(); i++)
 506              		.loc 1 122 24 is_stmt 1 discriminator 1 view .LVU119
 122:uart_api.c    ****     for(uint8_t i = 0; i < UserFunctions_GetFuncCount(); i++)
 507              		.loc 1 122 28 is_stmt 0 discriminator 1 view .LVU120
 508 0020 FFF7FEFF 		bl	UserFunctions_GetFuncCount
 509              	.LVL27:
 122:uart_api.c    ****     for(uint8_t i = 0; i < UserFunctions_GetFuncCount(); i++)
 510              		.loc 1 122 5 discriminator 1 view .LVU121
 511 0024 A042     		cmp	r0, r4
 512 0026 F1D8     		bhi	.L40
 513              	.LBE3:
 126:uart_api.c    ****     }
 127:uart_api.c    ****     printf("\r\n");
 514              		.loc 1 127 5 is_stmt 1 view .LVU122
 515 0028 0348     		ldr	r0, .L42+8
 516 002a FFF7FEFF 		bl	puts
 517              	.LVL28:
 128:uart_api.c    **** }
 518              		.loc 1 128 1 is_stmt 0 view .LVU123
 519 002e 10BD     		pop	{r4, pc}
 520              	.LVL29:
 521              	.L43:
 522              		.loc 1 128 1 view .LVU124
 523              		.align	2
 524              	.L42:
ARM GAS  C:\Users\mikal\AppData\Local\Temp\ccm1zh4G.s 			page 13


 525 0030 00000000 		.word	.LC1
 526 0034 3C000000 		.word	.LC2
 527 0038 4C000000 		.word	.LC3
 528              		.cfi_endproc
 529              	.LFE141:
 531              		.section	.rodata.UartAPI_WaitForCommandAndExecute.str1.4,"aMS",%progbits,1
 532              		.align	2
 533              	.LC4:
 534 0000 1B5B306D 		.ascii	"\033[0m\015\012Waiting for commands..\015\012\015\000"
 534      0D0A5761 
 534      6974696E 
 534      6720666F 
 534      7220636F 
 535              		.align	2
 536              	.LC5:
 537 0020 257300   		.ascii	"%s\000"
 538 0023 00       		.align	2
 539              	.LC6:
 540 0024 1B5B3331 		.ascii	"\033[31mFunction %s failed\015\012\033[0m\000"
 540      6D46756E 
 540      6374696F 
 540      6E202573 
 540      20666169 
 541 0042 0000     		.align	2
 542              	.LC7:
 543 0044 1B5B3333 		.ascii	"\033[33m\015\012Command \"%s\" is not found..\015\012"
 543      6D0D0A43 
 543      6F6D6D61 
 543      6E642022 
 543      25732220 
 544 0068 00       		.ascii	"\000"
 545              		.section	.text.UartAPI_WaitForCommandAndExecute,"ax",%progbits
 546              		.align	1
 547              		.global	UartAPI_WaitForCommandAndExecute
 548              		.syntax unified
 549              		.thumb
 550              		.thumb_func
 551              		.fpu fpv4-sp-d16
 553              	UartAPI_WaitForCommandAndExecute:
 554              	.LFB142:
 129:uart_api.c    **** 
 130:uart_api.c    **** 
 131:uart_api.c    **** void UartAPI_WaitForCommandAndExecute(void)
 132:uart_api.c    **** {
 555              		.loc 1 132 1 is_stmt 1 view -0
 556              		.cfi_startproc
 557              		@ args = 0, pretend = 0, frame = 64
 558              		@ frame_needed = 0, uses_anonymous_args = 0
 559 0000 30B5     		push	{r4, r5, lr}
 560              	.LCFI11:
 561              		.cfi_def_cfa_offset 12
 562              		.cfi_offset 4, -12
 563              		.cfi_offset 5, -8
 564              		.cfi_offset 14, -4
 565 0002 91B0     		sub	sp, sp, #68
 566              	.LCFI12:
 567              		.cfi_def_cfa_offset 80
ARM GAS  C:\Users\mikal\AppData\Local\Temp\ccm1zh4G.s 			page 14


 133:uart_api.c    ****     char incom[INCOMING_BUFF_LENGTH];
 568              		.loc 1 133 5 view .LVU126
 134:uart_api.c    ****     int value = -1;
 569              		.loc 1 134 5 view .LVU127
 570              	.LVL30:
 135:uart_api.c    ****     bool res;
 571              		.loc 1 135 5 view .LVU128
 136:uart_api.c    ****     char *p;
 572              		.loc 1 136 5 view .LVU129
 137:uart_api.c    ****     bool command_found = false;
 573              		.loc 1 137 5 view .LVU130
 138:uart_api.c    ****     Command_t *func;
 574              		.loc 1 138 5 view .LVU131
 139:uart_api.c    **** 
 140:uart_api.c    ****     printf(TC_RESET"\r\nWaiting for commands..\r\n\r\n");
 575              		.loc 1 140 5 view .LVU132
 576 0004 1B48     		ldr	r0, .L53
 577 0006 FFF7FEFF 		bl	puts
 578              	.LVL31:
 141:uart_api.c    **** 
 142:uart_api.c    ****     memset(incom, 0 ,INCOMING_BUFF_LENGTH);
 579              		.loc 1 142 5 view .LVU133
 580 000a 4022     		movs	r2, #64
 581 000c 0021     		movs	r1, #0
 582 000e 6846     		mov	r0, sp
 583 0010 FFF7FEFF 		bl	memset
 584              	.LVL32:
 143:uart_api.c    ****     scanf("%s", incom);
 585              		.loc 1 143 5 view .LVU134
 586 0014 6946     		mov	r1, sp
 587 0016 1848     		ldr	r0, .L53+4
 588 0018 FFF7FEFF 		bl	scanf
 589              	.LVL33:
 144:uart_api.c    **** 
 145:uart_api.c    ****     for(uint8_t i = 0; i < UserFunctions_GetFuncCount(); i++)
 590              		.loc 1 145 5 view .LVU135
 591              	.LBB4:
 592              		.loc 1 145 9 view .LVU136
 593              		.loc 1 145 17 is_stmt 0 view .LVU137
 594 001c 0024     		movs	r4, #0
 595              		.loc 1 145 5 view .LVU138
 596 001e 04E0     		b	.L45
 597              	.LVL34:
 598              	.L50:
 599              		.loc 1 145 5 view .LVU139
 600              	.LBE4:
 134:uart_api.c    ****     bool res;
 601              		.loc 1 134 9 view .LVU140
 602 0020 4FF0FF30 		mov	r0, #-1
 603              	.LVL35:
 134:uart_api.c    ****     bool res;
 604              		.loc 1 134 9 view .LVU141
 605 0024 18E0     		b	.L47
 606              	.LVL36:
 607              	.L46:
 608              	.LBB5:
 609              		.loc 1 145 58 is_stmt 1 discriminator 2 view .LVU142
ARM GAS  C:\Users\mikal\AppData\Local\Temp\ccm1zh4G.s 			page 15


 610              		.loc 1 145 59 is_stmt 0 discriminator 2 view .LVU143
 611 0026 0134     		adds	r4, r4, #1
 612              	.LVL37:
 613              		.loc 1 145 59 discriminator 2 view .LVU144
 614 0028 E4B2     		uxtb	r4, r4
 615              	.LVL38:
 616              	.L45:
 617              		.loc 1 145 24 is_stmt 1 discriminator 1 view .LVU145
 618              		.loc 1 145 28 is_stmt 0 discriminator 1 view .LVU146
 619 002a FFF7FEFF 		bl	UserFunctions_GetFuncCount
 620              	.LVL39:
 621              		.loc 1 145 5 discriminator 1 view .LVU147
 622 002e A042     		cmp	r0, r4
 623 0030 1AD9     		bls	.L52
 146:uart_api.c    ****     {
 147:uart_api.c    ****         func = UserFunctions_GetFunc(i);
 624              		.loc 1 147 9 is_stmt 1 view .LVU148
 625              		.loc 1 147 16 is_stmt 0 view .LVU149
 626 0032 2046     		mov	r0, r4
 627 0034 FFF7FEFF 		bl	UserFunctions_GetFunc
 628              	.LVL40:
 629 0038 0546     		mov	r5, r0
 630              	.LVL41:
 148:uart_api.c    ****         p = strstr(incom, func->command_name);
 631              		.loc 1 148 9 is_stmt 1 view .LVU150
 632              		.loc 1 148 13 is_stmt 0 view .LVU151
 633 003a 4168     		ldr	r1, [r0, #4]
 634 003c 6846     		mov	r0, sp
 635              	.LVL42:
 636              		.loc 1 148 13 view .LVU152
 637 003e FFF7FEFF 		bl	strstr
 638              	.LVL43:
 149:uart_api.c    **** 
 150:uart_api.c    ****         /* Command found */
 151:uart_api.c    ****         if( p != NULL )
 639              		.loc 1 151 9 is_stmt 1 view .LVU153
 640              		.loc 1 151 11 is_stmt 0 view .LVU154
 641 0042 0028     		cmp	r0, #0
 642 0044 EFD0     		beq	.L46
 152:uart_api.c    ****         {
 153:uart_api.c    ****             command_found = true;
 643              		.loc 1 153 13 is_stmt 1 view .LVU155
 644              	.LVL44:
 154:uart_api.c    ****             p = strstr(incom,",");
 645              		.loc 1 154 13 view .LVU156
 646              		.loc 1 154 17 is_stmt 0 view .LVU157
 647 0046 2C21     		movs	r1, #44
 648 0048 6846     		mov	r0, sp
 649              	.LVL45:
 650              		.loc 1 154 17 view .LVU158
 651 004a FFF7FEFF 		bl	strchr
 652              	.LVL46:
 155:uart_api.c    **** 
 156:uart_api.c    ****             /* Value found */
 157:uart_api.c    ****             if( p != NULL )
 653              		.loc 1 157 13 is_stmt 1 view .LVU159
 654              		.loc 1 157 15 is_stmt 0 view .LVU160
ARM GAS  C:\Users\mikal\AppData\Local\Temp\ccm1zh4G.s 			page 16


 655 004e 0028     		cmp	r0, #0
 656 0050 E6D0     		beq	.L50
 158:uart_api.c    ****             {
 159:uart_api.c    ****                 value = atoi(p+1);
 657              		.loc 1 159 17 is_stmt 1 view .LVU161
 658              		.loc 1 159 25 is_stmt 0 view .LVU162
 659 0052 0130     		adds	r0, r0, #1
 660              	.LVL47:
 661              		.loc 1 159 25 view .LVU163
 662 0054 FFF7FEFF 		bl	atoi
 663              	.LVL48:
 664              	.L47:
 160:uart_api.c    ****             }
 161:uart_api.c    ****             res = func->run(value);
 665              		.loc 1 161 13 is_stmt 1 view .LVU164
 666              		.loc 1 161 23 is_stmt 0 view .LVU165
 667 0058 2B68     		ldr	r3, [r5]
 668              		.loc 1 161 19 view .LVU166
 669 005a 9847     		blx	r3
 670              	.LVL49:
 162:uart_api.c    ****             if(res != true)
 671              		.loc 1 162 13 is_stmt 1 view .LVU167
 672              		.loc 1 162 15 is_stmt 0 view .LVU168
 673 005c 40B9     		cbnz	r0, .L44
 163:uart_api.c    ****             {
 164:uart_api.c    ****                 printf(TC_RED"Function %s failed\r\n"TC_RESET, func->command_name);
 674              		.loc 1 164 17 is_stmt 1 view .LVU169
 675 005e 6968     		ldr	r1, [r5, #4]
 676 0060 0648     		ldr	r0, .L53+8
 677              	.LVL50:
 678              		.loc 1 164 17 is_stmt 0 view .LVU170
 679 0062 FFF7FEFF 		bl	printf
 680              	.LVL51:
 681              		.loc 1 164 17 view .LVU171
 682              	.LBE5:
 165:uart_api.c    ****             }
 166:uart_api.c    ****             break;
 167:uart_api.c    ****         }
 168:uart_api.c    ****     }
 169:uart_api.c    **** 
 170:uart_api.c    ****     if(!command_found)
 683              		.loc 1 170 5 is_stmt 1 view .LVU172
 684 0066 03E0     		b	.L44
 685              	.LVL52:
 686              	.L52:
 687              		.loc 1 170 5 view .LVU173
 171:uart_api.c    ****     {
 172:uart_api.c    ****         printf(TC_YELLOW"\r\nCommand \"%s\" is not found..\r\n", incom);
 688              		.loc 1 172 9 view .LVU174
 689 0068 6946     		mov	r1, sp
 690 006a 0548     		ldr	r0, .L53+12
 691 006c FFF7FEFF 		bl	printf
 692              	.LVL53:
 693              	.L44:
 173:uart_api.c    ****     }
 174:uart_api.c    **** }
 694              		.loc 1 174 1 is_stmt 0 view .LVU175
ARM GAS  C:\Users\mikal\AppData\Local\Temp\ccm1zh4G.s 			page 17


 695 0070 11B0     		add	sp, sp, #68
 696              	.LCFI13:
 697              		.cfi_def_cfa_offset 12
 698              		@ sp needed
 699 0072 30BD     		pop	{r4, r5, pc}
 700              	.LVL54:
 701              	.L54:
 702              		.loc 1 174 1 view .LVU176
 703              		.align	2
 704              	.L53:
 705 0074 00000000 		.word	.LC4
 706 0078 20000000 		.word	.LC5
 707 007c 24000000 		.word	.LC6
 708 0080 44000000 		.word	.LC7
 709              		.cfi_endproc
 710              	.LFE142:
 712              		.global	huart1
 713              		.section	.bss.huart1,"aw",%nobits
 714              		.align	2
 715              		.set	.LANCHOR0,. + 0
 718              	huart1:
 719 0000 00000000 		.space	128
 719      00000000 
 719      00000000 
 719      00000000 
 719      00000000 
 720              		.text
 721              	.Letext0:
 722              		.file 2 "c:\\gnu arm embedded toolchain\\10 2021.07\\arm-none-eabi\\include\\machine\\_default_typ
 723              		.file 3 "c:\\gnu arm embedded toolchain\\10 2021.07\\arm-none-eabi\\include\\sys\\_stdint.h"
 724              		.file 4 "drivers/CMSIS/Device/ST/STM32L4xx/Include/stm32l475xx.h"
 725              		.file 5 "drivers/STM32L4xx_HAL_Driver/Inc/stm32l4xx_hal_def.h"
 726              		.file 6 "drivers/STM32L4xx_HAL_Driver/Inc/stm32l4xx_hal_dma.h"
 727              		.file 7 "drivers/STM32L4xx_HAL_Driver/Inc/stm32l4xx_hal_uart.h"
 728              		.file 8 "../inc/user_functions.h"
 729              		.file 9 "c:\\gnu arm embedded toolchain\\10 2021.07\\arm-none-eabi\\include\\string.h"
 730              		.file 10 "c:\\gnu arm embedded toolchain\\10 2021.07\\arm-none-eabi\\include\\stdlib.h"
 731              		.file 11 "c:\\gnu arm embedded toolchain\\10 2021.07\\arm-none-eabi\\include\\stdio.h"
 732              		.file 12 "<built-in>"
 733              		.file 13 "../inc/error.h"
ARM GAS  C:\Users\mikal\AppData\Local\Temp\ccm1zh4G.s 			page 18

